(dp0
V1437654575
p1
(dp2
S'gender'
p3
S'm'
p4
sS'location'
p5
V\u534e\u4e1c
p6
sS'year'
p7
S'1980-1989'
p8
ssV1863384824
p9
(dp10
g3
g4
sg5
V\u534e\u5357
p11
sg7
g8
ssV2476689617
p12
(dp13
g3
S'f'
p14
sg5
V\u534e\u5317
p15
sg7
g8
ssV1097019671
p16
(dp17
g3
g4
sg5
g15
sg7
g8
ssV1662043644
p18
(dp19
g3
g4
sg5
V\u4e1c\u5317
p20
sg7
g8
ssV1649227594
p21
(dp22
g3
g4
sg5
g6
sg7
g8
ssV2644198111
p23
(dp24
g3
g4
sg5
g6
sg7
g8
ssV3210332200
p25
(dp26
g3
g4
sg5
V\u534e\u4e2d
p27
sg7
g8
ssV2263800485
p28
(dp29
g3
g4
sg5
g27
sg7
S'1990+'
p30
ssV2233998230
p31
(dp32
g3
g14
sg5
g6
sg7
g8
ssV2101799347
p33
(dp34
g3
g4
sg5
g6
sg7
g8
ssV1793183032
p35
(dp36
g3
g4
sg5
g15
sg7
g30
ssV1826335820
p37
(dp38
g3
g14
sg5
g11
sg7
g30
ssV3363301662
p39
(dp40
g3
g4
sg5
V\u897f\u5317
p41
sg7
g8
ssV2310334287
p42
(dp43
g3
g4
sg5
g11
sg7
S'1979-'
p44
ssV2809972164
p45
(dp46
g3
g4
sg5
g15
sg7
g8
ssV2831291060
p47
(dp48
g3
g4
sg5
g6
sg7
g30
ssV1702693983
p49
(dp50
g3
g4
sg5
g15
sg7
g44
ssV1650731783
p51
(dp52
g3
g4
sg5
g6
sg7
g44
ssV1281528805
p53
(dp54
g3
g4
sg5
g6
sg7
g8
ssV1741043280
p55
(dp56
g3
g4
sg5
g11
sg7
g8
ssV1837060462
p57
(dp58
g3
g4
sg5
g11
sg7
g30
ssV2357029162
p59
(dp60
g3
g4
sg5
V\u897f\u5357
p61
sg7
g8
ssV1915896041
p62
(dp63
g3
g4
sg5
g27
sg7
S''
p64
ssV2670042354
p65
(dp66
g3
g4
sg5
g6
sg7
g44
ssV1802528930
p67
(dp68
g3
g14
sg5
g11
sg7
g30
ssV2599364084
p69
(dp70
g3
g4
sg5
g6
sg7
g8
ssV2685920901
p71
(dp72
g3
g4
sg5
g6
sg7
g8
ssV2111113635
p73
(dp74
g3
g4
sg5
g27
sg7
g8
ssV2735422365
p75
(dp76
g3
g4
sg5
g15
sg7
g8
ssV1778605763
p77
(dp78
g3
g14
sg5
g15
sg7
g30
ssV1930729827
p79
(dp80
g3
g4
sg5
g61
sg7
g8
ssV1135568164
p81
(dp82
g3
g4
sg5
g27
sg7
g8
ssV1336549385
p83
(dp84
g3
g4
sg5
g6
sg7
g8
ssV2274064801
p85
(dp86
g3
g14
sg5
g6
sg7
g30
ssV2916238587
p87
(dp88
g3
g4
sg5
g6
sg7
g30
ssV1158228704
p89
(dp90
g3
g4
sg5
g6
sg7
g64
ssV1876750515
p91
(dp92
g3
g4
sg5
g11
sg7
g30
ssV1644215093
p93
(dp94
g3
g4
sg5
g15
sg7
g8
ssV1940865523
p95
(dp96
g3
g4
sg5
g20
sg7
g8
ssV2954775382
p97
(dp98
g3
g4
sg5
g6
sg7
g8
ssV1480133234
p99
(dp100
g3
g4
sg5
g61
sg7
g44
ssV3014169797
p101
(dp102
g3
g4
sg5
V\u5883\u5916
p103
sg7
g30
ssV2975228027
p104
(dp105
g3
g14
sg5
g6
sg7
g30
ssV2815234954
p106
(dp107
g3
g14
sg5
g11
sg7
g30
ssV1848989161
p108
(dp109
g3
g4
sg5
g11
sg7
g44
ssV1819849227
p110
(dp111
g3
g14
sg5
g27
sg7
g30
ssV2375437395
p112
(dp113
g3
g4
sg5
g61
sg7
g30
ssV1480975182
p114
(dp115
g3
g4
sg5
g20
sg7
g8
ssV1010206540
p116
(dp117
g3
g4
sg5
g6
sg7
g44
ssV2288058635
p118
(dp119
g3
g4
sg5
g15
sg7
g30
ssV1934690391
p120
(dp121
g3
g4
sg5
g61
sg7
g30
ssV1073390982
p122
(dp123
g3
g4
sg5
g15
sg7
g8
ssV2188135785
p124
(dp125
g3
g14
sg5
g6
sg7
g8
ssV2642296631
p126
(dp127
g3
g4
sg5
g15
sg7
g8
ssV1081992905
p128
(dp129
g3
g4
sg5
g15
sg7
g44
ssV1192430137
p130
(dp131
g3
g4
sg5
g6
sg7
g8
ssV2640036161
p132
(dp133
g3
g4
sg5
g6
sg7
g30
ssV2515135520
p134
(dp135
g3
g4
sg5
g6
sg7
g30
ssV2254551532
p136
(dp137
g3
g4
sg5
g61
sg7
g44
ssV3095326151
p138
(dp139
g3
g4
sg5
g15
sg7
g30
ssV2532595942
p140
(dp141
g3
g14
sg5
g6
sg7
g8
ssV2678104171
p142
(dp143
g3
g4
sg5
g6
sg7
g64
ssV2015436193
p144
(dp145
g3
g14
sg5
g103
sg7
g64
ssV1759652113
p146
(dp147
g3
g4
sg5
g11
sg7
g8
ssV1751345681
p148
(dp149
g3
g4
sg5
g11
sg7
g8
ssV2389252782
p150
(dp151
g3
g4
sg5
g11
sg7
g30
ssV1588233575
p152
(dp153
g3
g4
sg5
g6
sg7
g8
ssV2791460161
p154
(dp155
g3
g4
sg5
g6
sg7
g44
ssV2416528024
p156
(dp157
g3
g14
sg5
g6
sg7
g30
ssV1553062685
p158
(dp159
g3
g4
sg5
g27
sg7
g8
ssV1421582511
p160
(dp161
g3
g4
sg5
g15
sg7
g44
ssV1817304600
p162
(dp163
g3
g4
sg5
g11
sg7
g8
ssV2556295304
p164
(dp165
g3
g4
sg5
g6
sg7
g8
ssV2926286584
p166
(dp167
g3
g4
sg5
g11
sg7
g30
ssV2532726222
p168
(dp169
g3
g4
sg5
g6
sg7
g30
ssV1889305682
p170
(dp171
g3
g4
sg5
g11
sg7
g8
ssV2653791631
p172
(dp173
g3
g4
sg5
g15
sg7
g8
ssV1445687504
p174
(dp175
g3
g4
sg5
g11
sg7
g44
ssV1771376163
p176
(dp177
g3
g4
sg5
g27
sg7
g8
ssV2614203315
p178
(dp179
g3
g4
sg5
g41
sg7
g30
ssV1871185137
p180
(dp181
g3
g4
sg5
g15
sg7
g8
ssV1130222531
p182
(dp183
g3
g4
sg5
g6
sg7
g8
ssV1737854284
p184
(dp185
g3
g4
sg5
g15
sg7
g8
ssV2707993253
p186
(dp187
g3
g4
sg5
g6
sg7
g8
ssV2273043910
p188
(dp189
g3
g4
sg5
g61
sg7
g44
ssV1253327042
p190
(dp191
g3
g14
sg5
g61
sg7
g8
ssV1760380282
p192
(dp193
g3
g4
sg5
g11
sg7
g8
ssV2179467223
p194
(dp195
g3
g4
sg5
g6
sg7
g8
ssV2632945384
p196
(dp197
g3
g14
sg5
g11
sg7
g8
ssV1676479093
p198
(dp199
g3
g4
sg5
g6
sg7
g30
ssV3331138020
p200
(dp201
g3
g4
sg5
g6
sg7
g8
ssV2762134860
p202
(dp203
g3
g14
sg5
g103
sg7
g64
ssV2360970234
p204
(dp205
g3
g4
sg5
g41
sg7
g8
ssV2718265731
p206
(dp207
g3
g14
sg5
g11
sg7
g44
ssV2708344714
p208
(dp209
g3
g14
sg5
g20
sg7
g8
ssV2311715697
p210
(dp211
g3
g4
sg5
g15
sg7
g8
ssV1764089704
p212
(dp213
g3
g4
sg5
g11
sg7
g30
ssV1407764102
p214
(dp215
g3
g4
sg5
g15
sg7
g44
ssV1661693597
p216
(dp217
g3
g4
sg5
g11
sg7
g8
ssV1772227557
p218
(dp219
g3
g4
sg5
g15
sg7
g8
ssV1419021967
p220
(dp221
g3
g4
sg5
g15
sg7
g8
ssV2291288353
p222
(dp223
g3
g14
sg5
g11
sg7
g30
ssV1766696047
p224
(dp225
g3
g14
sg5
g61
sg7
g30
ssV3164697567
p226
(dp227
g3
g4
sg5
g11
sg7
g8
ssV1670461631
p228
(dp229
g3
g4
sg5
g15
sg7
g8
ssV2388498761
p230
(dp231
g3
g4
sg5
g27
sg7
g30
ssV1296376625
p232
(dp233
g3
g4
sg5
g6
sg7
g8
ssV1706717647
p234
(dp235
g3
g4
sg5
g6
sg7
g8
ssV1194956002
p236
(dp237
g3
g4
sg5
g15
sg7
g8
ssV2373739231
p238
(dp239
g3
g4
sg5
g27
sg7
g8
ssV2299291803
p240
(dp241
g3
g4
sg5
g41
sg7
g30
ssV2251922121
p242
(dp243
g3
g4
sg5
g15
sg7
g30
ssV1832712741
p244
(dp245
g3
g14
sg5
g11
sg7
g30
ssV1088659091
p246
(dp247
g3
g4
sg5
g6
sg7
g8
ssV1827037650
p248
(dp249
g3
g14
sg5
g6
sg7
g44
ssV2346259347
p250
(dp251
g3
g4
sg5
g6
sg7
g8
ssV1713338103
p252
(dp253
g3
g4
sg5
g15
sg7
g30
ssV2418466033
p254
(dp255
g3
g4
sg5
g15
sg7
g8
ssV1197039675
p256
(dp257
g3
g4
sg5
g103
sg7
g30
ssV1615566863
p258
(dp259
g3
g4
sg5
g6
sg7
g8
ssV1841864292
p260
(dp261
g3
g14
sg5
g6
sg7
g8
ssV1826793973
p262
(dp263
g3
g4
sg5
g61
sg7
g30
ssV2585391774
p264
(dp265
g3
g4
sg5
g61
sg7
g8
ssV2959810315
p266
(dp267
g3
g4
sg5
g15
sg7
g8
ssV2150961787
p268
(dp269
g3
g4
sg5
g15
sg7
g8
ssV1048212783
p270
(dp271
g3
g4
sg5
g6
sg7
g8
ssV2997540812
p272
(dp273
g3
g4
sg5
g6
sg7
g30
ssV1401113090
p274
(dp275
g3
g4
sg5
g6
sg7
g44
ssV2464130854
p276
(dp277
g3
g14
sg5
g11
sg7
g30
ssV2658721611
p278
(dp279
g3
g4
sg5
g11
sg7
g8
ssV1764313354
p280
(dp281
g3
g4
sg5
g11
sg7
g8
ssV2751028113
p282
(dp283
g3
g4
sg5
g6
sg7
g64
ssV2053248305
p284
(dp285
g3
g4
sg5
g11
sg7
g30
ssV1918261705
p286
(dp287
g3
g4
sg5
g20
sg7
g30
ssV1742659945
p288
(dp289
g3
g4
sg5
g15
sg7
g30
ssV2861216440
p290
(dp291
g3
g4
sg5
g15
sg7
g64
ssV1763745827
p292
(dp293
g3
g14
sg5
g6
sg7
g8
ssV1095546562
p294
(dp295
g3
g4
sg5
g15
sg7
g8
ssV1653003903
p296
(dp297
g3
g4
sg5
g6
sg7
g8
ssV2597538141
p298
(dp299
g3
g4
sg5
g15
sg7
g8
ssV2401667841
p300
(dp301
g3
g4
sg5
g20
sg7
g64
ssV1134126684
p302
(dp303
g3
g4
sg5
g6
sg7
g8
ssV1820119395
p304
(dp305
g3
g4
sg5
g6
sg7
g8
ssV2814139504
p306
(dp307
g3
g14
sg5
g6
sg7
g8
ssV2475994283
p308
(dp309
g3
g4
sg5
g15
sg7
g8
ssV1802546305
p310
(dp311
g3
g4
sg5
g6
sg7
g8
ssV1219846652
p312
(dp313
g3
g14
sg5
g15
sg7
g8
ssV1869007973
p314
(dp315
g3
g14
sg5
g11
sg7
g8
ssV1903688170
p316
(dp317
g3
g4
sg5
g27
sg7
g30
ssV2824103253
p318
(dp319
g3
g4
sg5
g11
sg7
g8
ssV1762895003
p320
(dp321
g3
g4
sg5
g6
sg7
g30
ssV2554042422
p322
(dp323
g3
g4
sg5
g41
sg7
g8
ssV1692145762
p324
(dp325
g3
g4
sg5
g41
sg7
g8
ssV1804227890
p326
(dp327
g3
g14
sg5
g6
sg7
g8
ssV2405586963
p328
(dp329
g3
g4
sg5
g6
sg7
g30
ssV3122114020
p330
(dp331
g3
g14
sg5
g6
sg7
g30
ssV2714831411
p332
(dp333
g3
g14
sg5
g15
sg7
g30
ssV1417001713
p334
(dp335
g3
g4
sg5
g6
sg7
g8
ssV2377056732
p336
(dp337
g3
g4
sg5
g11
sg7
g8
ssV3029237492
p338
(dp339
g3
g14
sg5
g41
sg7
g30
ssV2985062583
p340
(dp341
g3
g14
sg5
g41
sg7
g30
ssV2798107573
p342
(dp343
g3
g4
sg5
g6
sg7
g8
ssV1743152063
p344
(dp345
g3
g4
sg5
g11
sg7
g8
ssV2243519355
p346
(dp347
g3
g4
sg5
g6
sg7
g8
ssV1943200413
p348
(dp349
g3
g4
sg5
g11
sg7
g8
ssV2784952264
p350
(dp351
g3
g4
sg5
g11
sg7
g8
ssV2945624541
p352
(dp353
g3
g4
sg5
g103
sg7
g30
ssV2257146430
p354
(dp355
g3
g4
sg5
g6
sg7
g8
ssV1750559541
p356
(dp357
g3
g4
sg5
g6
sg7
g8
ssV2992002534
p358
(dp359
g3
g14
sg5
g61
sg7
g30
ssV1751156287
p360
(dp361
g3
g14
sg5
g103
sg7
g64
ssV2456519795
p362
(dp363
g3
g14
sg5
g15
sg7
g30
ssV2459122511
p364
(dp365
g3
g4
sg5
g6
sg7
g30
ssV1765212780
p366
(dp367
g3
g4
sg5
g6
sg7
g8
ssV1864739361
p368
(dp369
g3
g4
sg5
g6
sg7
g64
ssV2636071
p370
(dp371
g3
g4
sg5
g27
sg7
g8
ssV2275269785
p372
(dp373
g3
g14
sg5
g6
sg7
g64
ssV1632992170
p374
(dp375
g3
g14
sg5
g15
sg7
g8
ssV2626699337
p376
(dp377
g3
g4
sg5
g6
sg7
g30
ssV1795865003
p378
(dp379
g3
g4
sg5
g61
sg7
g8
ssV3185870731
p380
(dp381
g3
g4
sg5
g6
sg7
g30
ssV1903174085
p382
(dp383
g3
g4
sg5
g103
sg7
g30
ssV1628274681
p384
(dp385
g3
g14
sg5
g27
sg7
g30
ssV2373230214
p386
(dp387
g3
g4
sg5
g27
sg7
g8
ssV1651786410
p388
(dp389
g3
g4
sg5
g15
sg7
g30
ssV1890998497
p390
(dp391
g3
g4
sg5
g41
sg7
g30
ssV1976091850
p392
(dp393
g3
g14
sg5
g41
sg7
g30
ssV1836822713
p394
(dp395
g3
g4
sg5
g6
sg7
g8
ssV2124627542
p396
(dp397
g3
g14
sg5
g27
sg7
g8
ssV2602099561
p398
(dp399
g3
g4
sg5
g15
sg7
g44
ssV1993842637
p400
(dp401
g3
g4
sg5
g6
sg7
g30
ssV1793275663
p402
(dp403
g3
g4
sg5
g15
sg7
g44
ssV1222885067
p404
(dp405
g3
g4
sg5
g6
sg7
g8
ssV2301279774
p406
(dp407
g3
g4
sg5
g11
sg7
g30
ssV3173356190
p408
(dp409
g3
g4
sg5
g15
sg7
g30
ssV3236457582
p410
(dp411
g3
g4
sg5
g41
sg7
g8
ssV1907346245
p412
(dp413
g3
g4
sg5
g103
sg7
g30
ssV2648362533
p414
(dp415
g3
g14
sg5
g15
sg7
g30
ssV2479855844
p416
(dp417
g3
g4
sg5
g27
sg7
g8
ssV1677071631
p418
(dp419
g3
g14
sg5
g103
sg7
g30
ssV1186575835
p420
(dp421
g3
g4
sg5
g15
sg7
g44
ssV2718272545
p422
(dp423
g3
g14
sg5
g6
sg7
g30
ssV1772586637
p424
(dp425
g3
g4
sg5
g15
sg7
g44
ssV1442327465
p426
(dp427
g3
g14
sg5
g15
sg7
g8
ssV2704356785
p428
(dp429
g3
g4
sg5
g41
sg7
g44
ssV1972864963
p430
(dp431
g3
g4
sg5
g15
sg7
g8
ssV2873632550
p432
(dp433
g3
g14
sg5
g6
sg7
g64
ssV1103173143
p434
(dp435
g3
g4
sg5
g15
sg7
g8
ssV2605575117
p436
(dp437
g3
g4
sg5
g15
sg7
g8
ssV1904432792
p438
(dp439
g3
g4
sg5
g15
sg7
g8
ssV2194704295
p440
(dp441
g3
g4
sg5
g15
sg7
g8
ssV2293447203
p442
(dp443
g3
g14
sg5
g15
sg7
g30
ssV2841697115
p444
(dp445
g3
g14
sg5
g61
sg7
g8
ssV2245076965
p446
(dp447
g3
g4
sg5
g27
sg7
g8
ssV1740559111
p448
(dp449
g3
g14
sg5
g6
sg7
g8
ssV1675984730
p450
(dp451
g3
g4
sg5
g15
sg7
g44
ssV1877322845
p452
(dp453
g3
g4
sg5
g11
sg7
g8
ssV2848328527
p454
(dp455
g3
g4
sg5
g103
sg7
g30
ssV3037748720
p456
(dp457
g3
g4
sg5
g15
sg7
g8
ssV1553575840
p458
(dp459
g3
g14
sg5
g27
sg7
g8
ssV2477862101
p460
(dp461
g3
g4
sg5
g15
sg7
g44
ssV3206598931
p462
(dp463
g3
g4
sg5
g61
sg7
g8
ssV2727069225
p464
(dp465
g3
g14
sg5
g27
sg7
g8
ssV2290138117
p466
(dp467
g3
g4
sg5
g15
sg7
g8
ssV1132080382
p468
(dp469
g3
g4
sg5
g6
sg7
g44
ssV1699496267
p470
(dp471
g3
g4
sg5
g61
sg7
g8
ssV1884317152
p472
(dp473
g3
g4
sg5
g27
sg7
g8
ssV2193574710
p474
(dp475
g3
g4
sg5
g11
sg7
g44
ssV2620158873
p476
(dp477
g3
g4
sg5
g11
sg7
g8
ssV1372195384
p478
(dp479
g3
g4
sg5
g6
sg7
g8
ssV2499316531
p480
(dp481
g3
g4
sg5
g61
sg7
g8
ssV1321246601
p482
(dp483
g3
g4
sg5
g6
sg7
g8
ssV1752296795
p484
(dp485
g3
g4
sg5
g6
sg7
g8
ssV1436183367
p486
(dp487
g3
g4
sg5
g6
sg7
g8
ssV1705128983
p488
(dp489
g3
g14
sg5
g27
sg7
g8
ssV1314664643
p490
(dp491
g3
g4
sg5
g15
sg7
g44
ssV1866540195
p492
(dp493
g3
g4
sg5
g11
sg7
g30
ssV2638616804
p494
(dp495
g3
g4
sg5
g11
sg7
g30
ssV1798604215
p496
(dp497
g3
g14
sg5
g11
sg7
g8
ssV2782432522
p498
(dp499
g3
g14
sg5
g6
sg7
g44
ssV1016823867
p500
(dp501
g3
g4
sg5
g15
sg7
g30
ssV2406447784
p502
(dp503
g3
g14
sg5
g103
sg7
g64
ssV2356277673
p504
(dp505
g3
g14
sg5
g15
sg7
g8
ssV2285002930
p506
(dp507
g3
g4
sg5
g6
sg7
g30
ssV2586926194
p508
(dp509
g3
g4
sg5
g103
sg7
g8
ssV1674829422
p510
(dp511
g3
g4
sg5
g11
sg7
g8
ssV1768035545
p512
(dp513
g3
g4
sg5
g20
sg7
g44
ssV1732567481
p514
(dp515
g3
g4
sg5
g61
sg7
g30
ssV1770839332
p516
(dp517
g3
g4
sg5
g6
sg7
g8
ssV2611074525
p518
(dp519
g3
g14
sg5
g15
sg7
g30
ssV1346066905
p520
(dp521
g3
g4
sg5
g6
sg7
g8
ssV1404844844
p522
(dp523
g3
g14
sg5
g15
sg7
g44
ssV2381636693
p524
(dp525
g3
g14
sg5
g15
sg7
g44
ssV2379178513
p526
(dp527
g3
g4
sg5
g27
sg7
g8
ssV2987179462
p528
(dp529
g3
g4
sg5
g27
sg7
g30
ssV1895910890
p530
(dp531
g3
g4
sg5
g6
sg7
g44
ssV2728879023
p532
(dp533
g3
g14
sg5
g15
sg7
g44
ssV2279193771
p534
(dp535
g3
g4
sg5
g6
sg7
g8
ssV1180361187
p536
(dp537
g3
g4
sg5
g15
sg7
g8
ssV1828338772
p538
(dp539
g3
g4
sg5
g11
sg7
g8
ssV2247848767
p540
(dp541
g3
g14
sg5
g15
sg7
g8
ssV2502415043
p542
(dp543
g3
g4
sg5
g11
sg7
g8
ssV1729674993
p544
(dp545
g3
g4
sg5
g11
sg7
g8
ssV2261120363
p546
(dp547
g3
g4
sg5
g15
sg7
g30
ssV1699444081
p548
(dp549
g3
g4
sg5
g15
sg7
g44
ssV1782686791
p550
(dp551
g3
g4
sg5
g6
sg7
g8
ssV2596054670
p552
(dp553
g3
g4
sg5
g6
sg7
g8
ssV1450687240
p554
(dp555
g3
g4
sg5
g6
sg7
g44
ssV3175039507
p556
(dp557
g3
g4
sg5
g6
sg7
g30
ssV1226349880
p558
(dp559
g3
g14
sg5
g15
sg7
g30
ssV1574885232
p560
(dp561
g3
g4
sg5
g6
sg7
g44
ssV3002374617
p562
(dp563
g3
g4
sg5
g20
sg7
g30
ssV2394410043
p564
(dp565
g3
g14
sg5
g15
sg7
g8
ssV1796607647
p566
(dp567
g3
g4
sg5
g11
sg7
g8
ssV2266490493
p568
(dp569
g3
g4
sg5
g6
sg7
g8
ssV1686662974
p570
(dp571
g3
g4
sg5
g11
sg7
g30
ssV2708144347
p572
(dp573
g3
g14
sg5
g6
sg7
g8
ssV1571882663
p574
(dp575
g3
g4
sg5
g6
sg7
g8
ssV1849119523
p576
(dp577
g3
g4
sg5
g6
sg7
g8
ssV2418735472
p578
(dp579
g3
g4
sg5
g6
sg7
g30
ssV2679135333
p580
(dp581
g3
g4
sg5
g11
sg7
g30
ssV1773757097
p582
(dp583
g3
g4
sg5
g61
sg7
g30
ssV1745846270
p584
(dp585
g3
g4
sg5
g6
sg7
g30
ssV1679187385
p586
(dp587
g3
g4
sg5
g6
sg7
g8
ssV1428556057
p588
(dp589
g3
g4
sg5
g6
sg7
g8
ssV2705143367
p590
(dp591
g3
g4
sg5
g6
sg7
g8
ssV2747927407
p592
(dp593
g3
g4
sg5
g15
sg7
g8
ssV1178837544
p594
(dp595
g3
g4
sg5
g61
sg7
g8
ssV2772211020
p596
(dp597
g3
g4
sg5
g61
sg7
g44
ssV1410895810
p598
(dp599
g3
g4
sg5
g15
sg7
g44
ssV1615225710
p600
(dp601
g3
g4
sg5
g15
sg7
g8
ssV2205082954
p602
(dp603
g3
g4
sg5
g61
sg7
g30
ssV2401030731
p604
(dp605
g3
g14
sg5
g6
sg7
g8
ssV2061802911
p606
(dp607
g3
g4
sg5
g6
sg7
g8
ssV2706680547
p608
(dp609
g3
g4
sg5
g6
sg7
g30
ssV2015911243
p610
(dp611
g3
g4
sg5
g11
sg7
g30
ssV1572416205
p612
(dp613
g3
g4
sg5
g15
sg7
g8
ssV1749140383
p614
(dp615
g3
g4
sg5
g11
sg7
g64
ssV2392219810
p616
(dp617
g3
g14
sg5
g103
sg7
g64
ssV1354370475
p618
(dp619
g3
g4
sg5
g11
sg7
g8
ssV2463043725
p620
(dp621
g3
g14
sg5
g20
sg7
g30
ssV2312754895
p622
(dp623
g3
g4
sg5
g61
sg7
g30
ssV1572243313
p624
(dp625
g3
g4
sg5
g6
sg7
g44
ssV1904072104
p626
(dp627
g3
g4
sg5
g15
sg7
g8
ssV2626136864
p628
(dp629
g3
g14
sg5
g6
sg7
g44
ssV1407604085
p630
(dp631
g3
g4
sg5
g20
sg7
g8
ssV2614561977
p632
(dp633
g3
g4
sg5
g20
sg7
g30
ssV1863279280
p634
(dp635
g3
g4
sg5
g6
sg7
g44
ssV2872076174
p636
(dp637
g3
g4
sg5
g6
sg7
g30
ssV1191693630
p638
(dp639
g3
g4
sg5
g6
sg7
g8
ssV2529410317
p640
(dp641
g3
g4
sg5
g61
sg7
g8
ssV2942543017
p642
(dp643
g3
g4
sg5
g6
sg7
g30
ssV1624501527
p644
(dp645
g3
g4
sg5
g15
sg7
g44
ssV1721105227
p646
(dp647
g3
g14
sg5
g6
sg7
g8
ssV2013072154
p648
(dp649
g3
g4
sg5
g61
sg7
g8
ssV1903520125
p650
(dp651
g3
g14
sg5
g15
sg7
g8
ssV2290405973
p652
(dp653
g3
g4
sg5
g6
sg7
g30
ssV2814227943
p654
(dp655
g3
g4
sg5
g15
sg7
g30
ssV1862722514
p656
(dp657
g3
g14
sg5
g11
sg7
g8
ssV1271015820
p658
(dp659
g3
g4
sg5
g15
sg7
g8
ssV2832247351
p660
(dp661
g3
g14
sg5
g41
sg7
g30
ssV2377559694
p662
(dp663
g3
g14
sg5
g11
sg7
g8
ssV2678034884
p664
(dp665
g3
g14
sg5
g11
sg7
g8
ssV1146555413
p666
(dp667
g3
g4
sg5
g15
sg7
g44
ssV1722189331
p668
(dp669
g3
g14
sg5
g61
sg7
g44
ssV1742712911
p670
(dp671
g3
g14
sg5
g6
sg7
g8
ssV3013060127
p672
(dp673
g3
g4
sg5
g11
sg7
g30
ssV2095450481
p674
(dp675
g3
g4
sg5
g103
sg7
g64
ssV1628203092
p676
(dp677
g3
g4
sg5
g6
sg7
g30
ssV1575585953
p678
(dp679
g3
g4
sg5
g27
sg7
g8
ssV2958966260
p680
(dp681
g3
g4
sg5
g11
sg7
g8
ssV2448366413
p682
(dp683
g3
g4
sg5
g15
sg7
g44
ssV1774481472
p684
(dp685
g3
g4
sg5
g11
sg7
g30
ssV1240850170
p686
(dp687
g3
g4
sg5
g6
sg7
g8
ssV1132523305
p688
(dp689
g3
g4
sg5
g6
sg7
g8
ssV1403264367
p690
(dp691
g3
g4
sg5
g11
sg7
g44
ssV1610962080
p692
(dp693
g3
g4
sg5
g41
sg7
g30
ssV2618662861
p694
(dp695
g3
g4
sg5
g6
sg7
g8
ssV2534892030
p696
(dp697
g3
g14
sg5
g11
sg7
g8
ssV1832790984
p698
(dp699
g3
g4
sg5
g6
sg7
g44
ssV1877933877
p700
(dp701
g3
g4
sg5
g27
sg7
g30
ssV2605392322
p702
(dp703
g3
g4
sg5
g11
sg7
g30
ssV1732032003
p704
(dp705
g3
g4
sg5
g27
sg7
g30
ssV1237884817
p706
(dp707
g3
g4
sg5
g20
sg7
g8
ssV2907006627
p708
(dp709
g3
g14
sg5
g61
sg7
g30
ssV2490986060
p710
(dp711
g3
g4
sg5
g11
sg7
g8
ssV1655593560
p712
(dp713
g3
g4
sg5
g15
sg7
g8
ssV1522474181
p714
(dp715
g3
g4
sg5
g11
sg7
g8
ssV2684074833
p716
(dp717
g3
g4
sg5
g11
sg7
g8
ssV2328822871
p718
(dp719
g3
g4
sg5
g6
sg7
g64
ssV2382403281
p720
(dp721
g3
g4
sg5
g6
sg7
g8
ssV1896734323
p722
(dp723
g3
g4
sg5
g15
sg7
g8
ssV1713431704
p724
(dp725
g3
g14
sg5
g15
sg7
g8
ssV1736834765
p726
(dp727
g3
g4
sg5
g6
sg7
g8
ssV2689533247
p728
(dp729
g3
g4
sg5
g15
sg7
g8
ssV1782364423
p730
(dp731
g3
g4
sg5
g6
sg7
g30
ssV1882371191
p732
(dp733
g3
g4
sg5
g11
sg7
g30
ssV2038721554
p734
(dp735
g3
g14
sg5
g15
sg7
g8
ssV1222826910
p736
(dp737
g3
g4
sg5
g15
sg7
g44
ssV1512466564
p738
(dp739
g3
g4
sg5
g6
sg7
g8
ssV1923595373
p740
(dp741
g3
g4
sg5
g27
sg7
g8
ssV3115383751
p742
(dp743
g3
g4
sg5
g41
sg7
g30
ssV1659985882
p744
(dp745
g3
g4
sg5
g15
sg7
g30
ssV2793565701
p746
(dp747
g3
g4
sg5
g15
sg7
g8
ssV1449282163
p748
(dp749
g3
g4
sg5
g15
sg7
g8
ssV1886902677
p750
(dp751
g3
g4
sg5
g11
sg7
g8
ssV2294105054
p752
(dp753
g3
g4
sg5
g11
sg7
g8
ssV1465512643
p754
(dp755
g3
g4
sg5
g15
sg7
g8
ssV2868360900
p756
(dp757
g3
g4
sg5
g6
sg7
g30
ssV2670203193
p758
(dp759
g3
g4
sg5
g15
sg7
g8
ssV2910098747
p760
(dp761
g3
g14
sg5
g15
sg7
g30
ssV2785917050
p762
(dp763
g3
g14
sg5
g15
sg7
g8
ssV1855272451
p764
(dp765
g3
g4
sg5
g6
sg7
g8
ssV1421941067
p766
(dp767
g3
g4
sg5
g15
sg7
g8
ssV1823988984
p768
(dp769
g3
g4
sg5
g20
sg7
g8
ssV2627503774
p770
(dp771
g3
g4
sg5
g6
sg7
g30
ssV2813641494
p772
(dp773
g3
g4
sg5
g6
sg7
g8
ssV1896892533
p774
(dp775
g3
g4
sg5
g11
sg7
g30
ssV2390270251
p776
(dp777
g3
g4
sg5
g6
sg7
g8
ssV1146143120
p778
(dp779
g3
g4
sg5
g15
sg7
g44
ssV2008176975
p780
(dp781
g3
g4
sg5
g11
sg7
g8
ssV1583400374
p782
(dp783
g3
g4
sg5
g11
sg7
g44
ssV2122094875
p784
(dp785
g3
g4
sg5
g11
sg7
g44
ssV1965399672
p786
(dp787
g3
g14
sg5
g6
sg7
g8
ssV1872051102
p788
(dp789
g3
g4
sg5
g15
sg7
g44
ssV1686750962
p790
(dp791
g3
g4
sg5
g11
sg7
g8
ssV2550576333
p792
(dp793
g3
g4
sg5
g15
sg7
g30
ssV1787118805
p794
(dp795
g3
g4
sg5
g6
sg7
g30
ssV1039584863
p796
(dp797
g3
g4
sg5
g11
sg7
g8
ssV1878580605
p798
(dp799
g3
g4
sg5
g6
sg7
g8
ssV2319008431
p800
(dp801
g3
g4
sg5
g6
sg7
g44
ssV1614003492
p802
(dp803
g3
g4
sg5
g15
sg7
g8
ssV3285116473
p804
(dp805
g3
g14
sg5
g15
sg7
g8
ssV1406980903
p806
(dp807
g3
g4
sg5
g41
sg7
g44
ssV1294340800
p808
(dp809
g3
g4
sg5
g11
sg7
g8
ssV1962973332
p810
(dp811
g3
g4
sg5
g6
sg7
g8
ssV1426226457
p812
(dp813
g3
g4
sg5
g20
sg7
g8
ssV2187425003
p814
(dp815
g3
g4
sg5
g27
sg7
g8
ssV1227917800
p816
(dp817
g3
g4
sg5
g15
sg7
g8
ssV2686846727
p818
(dp819
g3
g4
sg5
g61
sg7
g30
ssV1017500627
p820
(dp821
g3
g4
sg5
g15
sg7
g44
ssV1791486193
p822
(dp823
g3
g4
sg5
g6
sg7
g8
ssV2714341463
p824
(dp825
g3
g14
sg5
g15
sg7
g8
ssV1239847773
p826
(dp827
g3
g4
sg5
g15
sg7
g8
ssV1566646464
p828
(dp829
g3
g4
sg5
g61
sg7
g8
ssV2884478055
p830
(dp831
g3
g4
sg5
g11
sg7
g8
ssV1662463183
p832
(dp833
g3
g14
sg5
g15
sg7
g44
ssV1800899567
p834
(dp835
g3
g4
sg5
g27
sg7
g8
ssV1722066993
p836
(dp837
g3
g4
sg5
g6
sg7
g8
ssV2458430992
p838
(dp839
g3
g4
sg5
g11
sg7
g30
ssV1270963501
p840
(dp841
g3
g4
sg5
g61
sg7
g8
ssV1150794353
p842
(dp843
g3
g4
sg5
g6
sg7
g8
ssV1962030043
p844
(dp845
g3
g4
sg5
g15
sg7
g30
ssV1195235102
p846
(dp847
g3
g4
sg5
g27
sg7
g8
ssV1873012403
p848
(dp849
g3
g4
sg5
g27
sg7
g8
ssV2103208243
p850
(dp851
g3
g4
sg5
g15
sg7
g8
ssV1966207253
p852
(dp853
g3
g14
sg5
g103
sg7
g30
ssV2796017557
p854
(dp855
g3
g4
sg5
g20
sg7
g30
ssV1004952991
p856
(dp857
g3
g4
sg5
g6
sg7
g8
ssV1433549103
p858
(dp859
g3
g14
sg5
g27
sg7
g8
ssV1871710311
p860
(dp861
g3
g4
sg5
g11
sg7
g30
ssV2724423081
p862
(dp863
g3
g4
sg5
g20
sg7
g30
ssV1470566153
p864
(dp865
g3
g4
sg5
g15
sg7
g8
ssV3014553163
p866
(dp867
g3
g4
sg5
g27
sg7
g30
ssV1836349401
p868
(dp869
g3
g14
sg5
g15
sg7
g8
ssV2190978852
p870
(dp871
g3
g14
sg5
g61
sg7
g8
ssV1234275454
p872
(dp873
g3
g14
sg5
g15
sg7
g8
ssV1909030637
p874
(dp875
g3
g4
sg5
g61
sg7
g8
ssV1268688930
p876
(dp877
g3
g4
sg5
g15
sg7
g8
ssV1560811012
p878
(dp879
g3
g14
sg5
g6
sg7
g44
ssV2167424813
p880
(dp881
g3
g14
sg5
g15
sg7
g8
ssV2785608072
p882
(dp883
g3
g4
sg5
g61
sg7
g44
ssV1067900262
p884
(dp885
g3
g4
sg5
g41
sg7
g8
ssV1572441061
p886
(dp887
g3
g14
sg5
g6
sg7
g30
ssV1887764852
p888
(dp889
g3
g14
sg5
g27
sg7
g30
ssV1914984834
p890
(dp891
g3
g14
sg5
g20
sg7
g8
ssV1836669740
p892
(dp893
g3
g4
sg5
g11
sg7
g8
ssV1302459531
p894
(dp895
g3
g4
sg5
g6
sg7
g30
ssV1713915734
p896
(dp897
g3
g14
sg5
g6
sg7
g8
ssV1967550143
p898
(dp899
g3
g4
sg5
g11
sg7
g8
ssV1685833114
p900
(dp901
g3
g4
sg5
g61
sg7
g30
ssV3226702187
p902
(dp903
g3
g4
sg5
g15
sg7
g30
ssV1651456263
p904
(dp905
g3
g4
sg5
g27
sg7
g8
ssV1889568113
p906
(dp907
g3
g4
sg5
g6
sg7
g64
ssV2386946767
p908
(dp909
g3
g4
sg5
g15
sg7
g8
ssV1583095435
p910
(dp911
g3
g4
sg5
g41
sg7
g8
ssV1308616370
p912
(dp913
g3
g4
sg5
g61
sg7
g8
ssV2452231361
p914
(dp915
g3
g4
sg5
g6
sg7
g8
ssV1984942435
p916
(dp917
g3
g4
sg5
g6
sg7
g44
ssV2151176490
p918
(dp919
g3
g4
sg5
g6
sg7
g8
ssV2810383762
p920
(dp921
g3
g4
sg5
g6
sg7
g30
ssV2757798323
p922
(dp923
g3
g4
sg5
g6
sg7
g8
ssV1726618517
p924
(dp925
g3
g14
sg5
g11
sg7
g8
ssV1913052597
p926
(dp927
g3
g4
sg5
g6
sg7
g30
ssV1416443200
p928
(dp929
g3
g4
sg5
g27
sg7
g8
ssV2742564803
p930
(dp931
g3
g14
sg5
g15
sg7
g30
ssV2416275737
p932
(dp933
g3
g4
sg5
g27
sg7
g30
ssV1773785231
p934
(dp935
g3
g14
sg5
g11
sg7
g8
ssV2419170344
p936
(dp937
g3
g14
sg5
g6
sg7
g30
ssV1929988490
p938
(dp939
g3
g4
sg5
g11
sg7
g30
ssV2211874627
p940
(dp941
g3
g4
sg5
g15
sg7
g30
ssV2159642185
p942
(dp943
g3
g4
sg5
g11
sg7
g30
ssV2770658780
p944
(dp945
g3
g4
sg5
g6
sg7
g30
ssV2694174710
p946
(dp947
g3
g14
sg5
g6
sg7
g30
ssV1645835575
p948
(dp949
g3
g4
sg5
g61
sg7
g30
ssV2294945435
p950
(dp951
g3
g4
sg5
g11
sg7
g44
ssV1059328282
p952
(dp953
g3
g4
sg5
g20
sg7
g8
ssV1397822322
p954
(dp955
g3
g4
sg5
g6
sg7
g30
ssV2400925723
p956
(dp957
g3
g4
sg5
g15
sg7
g8
ssV1416782153
p958
(dp959
g3
g4
sg5
g27
sg7
g44
ssV1866116872
p960
(dp961
g3
g4
sg5
g6
sg7
g8
ssV2933678981
p962
(dp963
g3
g14
sg5
g15
sg7
g8
ssV1376388924
p964
(dp965
g3
g4
sg5
g11
sg7
g8
ssV1390484700
p966
(dp967
g3
g4
sg5
g15
sg7
g8
ssV2218210763
p968
(dp969
g3
g4
sg5
g6
sg7
g8
ssV2697749224
p970
(dp971
g3
g4
sg5
g6
sg7
g8
ssV2635073511
p972
(dp973
g3
g14
sg5
g6
sg7
g30
ssV3001994504
p974
(dp975
g3
g4
sg5
g61
sg7
g30
ssV2887476642
p976
(dp977
g3
g14
sg5
g6
sg7
g8
ssV2743279522
p978
(dp979
g3
g4
sg5
g11
sg7
g30
ssV1824895633
p980
(dp981
g3
g14
sg5
g15
sg7
g8
ssV2775971913
p982
(dp983
g3
g4
sg5
g20
sg7
g30
ssV2720364610
p984
(dp985
g3
g4
sg5
g15
sg7
g30
ssV2191393865
p986
(dp987
g3
g14
sg5
g15
sg7
g8
ssV1510214665
p988
(dp989
g3
g4
sg5
g15
sg7
g8
ssV2280618897
p990
(dp991
g3
g4
sg5
g41
sg7
g30
ssV1830922363
p992
(dp993
g3
g14
sg5
g6
sg7
g30
ssV2365955653
p994
(dp995
g3
g4
sg5
g61
sg7
g30
ssV1404846341
p996
(dp997
g3
g4
sg5
g6
sg7
g64
ssV1060933804
p998
(dp999
g3
g14
sg5
g15
sg7
g44
ssV1440962973
p1000
(dp1001
g3
g14
sg5
g27
sg7
g8
ssV1736646085
p1002
(dp1003
g3
g4
sg5
g11
sg7
g44
ssV2323439873
p1004
(dp1005
g3
g4
sg5
g6
sg7
g8
ssV2813504202
p1006
(dp1007
g3
g14
sg5
g11
sg7
g8
ssV2305025032
p1008
(dp1009
g3
g4
sg5
g11
sg7
g30
ssV2216702742
p1010
(dp1011
g3
g14
sg5
g15
sg7
g30
ssV2355079001
p1012
(dp1013
g3
g4
sg5
g61
sg7
g30
ssV2369865831
p1014
(dp1015
g3
g14
sg5
g15
sg7
g8
ssV2172776854
p1016
(dp1017
g3
g4
sg5
g61
sg7
g8
ssV1948043161
p1018
(dp1019
g3
g4
sg5
g6
sg7
g8
ssV1771466270
p1020
(dp1021
g3
g4
sg5
g27
sg7
g8
ssV2855803990
p1022
(dp1023
g3
g4
sg5
g41
sg7
g8
ssV1464139943
p1024
(dp1025
g3
g4
sg5
g27
sg7
g8
ssV2935303527
p1026
(dp1027
g3
g4
sg5
g11
sg7
g8
ssV1108339247
p1028
(dp1029
g3
g4
sg5
g6
sg7
g8
ssV2259954174
p1030
(dp1031
g3
g14
sg5
g11
sg7
g8
ssV1179764700
p1032
(dp1033
g3
g4
sg5
g27
sg7
g8
ssV1834880663
p1034
(dp1035
g3
g14
sg5
g15
sg7
g8
ssV1659896143
p1036
(dp1037
g3
g4
sg5
g15
sg7
g8
ssV1993840022
p1038
(dp1039
g3
g14
sg5
g6
sg7
g8
ssV1749859757
p1040
(dp1041
g3
g4
sg5
g6
sg7
g30
ssV1611260370
p1042
(dp1043
g3
g4
sg5
g15
sg7
g8
ssV2966297450
p1044
(dp1045
g3
g4
sg5
g61
sg7
g30
ssV2697050121
p1046
(dp1047
g3
g4
sg5
g27
sg7
g30
ssV1852724777
p1048
(dp1049
g3
g4
sg5
g15
sg7
g8
ssV2642665271
p1050
(dp1051
g3
g4
sg5
g6
sg7
g44
ssV1770543293
p1052
(dp1053
g3
g4
sg5
g6
sg7
g44
ssV1776050710
p1054
(dp1055
g3
g4
sg5
g15
sg7
g8
ssV1583403102
p1056
(dp1057
g3
g14
sg5
g20
sg7
g8
ssV1462429103
p1058
(dp1059
g3
g14
sg5
g6
sg7
g8
ssV1895743152
p1060
(dp1061
g3
g14
sg5
g27
sg7
g8
ssV1229297394
p1062
(dp1063
g3
g4
sg5
g15
sg7
g8
ssV1798523071
p1064
(dp1065
g3
g4
sg5
g15
sg7
g8
ssV1976187052
p1066
(dp1067
g3
g4
sg5
g6
sg7
g30
ssV1909484543
p1068
(dp1069
g3
g4
sg5
g103
sg7
g8
ssV1417966981
p1070
(dp1071
g3
g4
sg5
g6
sg7
g8
ssV1287163315
p1072
(dp1073
g3
g14
sg5
g15
sg7
g30
ssV2583909674
p1074
(dp1075
g3
g14
sg5
g20
sg7
g30
ssV1673025024
p1076
(dp1077
g3
g4
sg5
g15
sg7
g8
ssV1938480904
p1078
(dp1079
g3
g4
sg5
g15
sg7
g8
ssV1794958882
p1080
(dp1081
g3
g14
sg5
g11
sg7
g8
ssV2174832754
p1082
(dp1083
g3
g4
sg5
g15
sg7
g8
ssV2114041470
p1084
(dp1085
g3
g4
sg5
g11
sg7
g8
ssV2118576943
p1086
(dp1087
g3
g4
sg5
g61
sg7
g8
ssV2686472283
p1088
(dp1089
g3
g4
sg5
g6
sg7
g30
ssV1761269744
p1090
(dp1091
g3
g14
sg5
g6
sg7
g30
ssV1769434422
p1092
(dp1093
g3
g4
sg5
g61
sg7
g8
ssV2253935930
p1094
(dp1095
g3
g14
sg5
g27
sg7
g30
ssV2515463507
p1096
(dp1097
g3
g4
sg5
g61
sg7
g30
ssV2180233507
p1098
(dp1099
g3
g4
sg5
g6
sg7
g8
ssV3005471383
p1100
(dp1101
g3
g4
sg5
g27
sg7
g8
ssV1735195071
p1102
(dp1103
g3
g4
sg5
g11
sg7
g30
ssV2454397150
p1104
(dp1105
g3
g4
sg5
g11
sg7
g30
ssV1619729000
p1106
(dp1107
g3
g4
sg5
g6
sg7
g8
ssV2805169922
p1108
(dp1109
g3
g4
sg5
g11
sg7
g8
ssV2541334467
p1110
(dp1111
g3
g4
sg5
g11
sg7
g8
ssV1951642605
p1112
(dp1113
g3
g14
sg5
g103
sg7
g30
ssV1428652062
p1114
(dp1115
g3
g4
sg5
g15
sg7
g8
ssV1807512607
p1116
(dp1117
g3
g14
sg5
g15
sg7
g30
ssV2813274281
p1118
(dp1119
g3
g14
sg5
g15
sg7
g8
ssV1114766430
p1120
(dp1121
g3
g4
sg5
g15
sg7
g8
ssV1320483941
p1122
(dp1123
g3
g14
sg5
g15
sg7
g8
ssV2324795500
p1124
(dp1125
g3
g4
sg5
g6
sg7
g8
ssV1278534055
p1126
(dp1127
g3
g14
sg5
g15
sg7
g8
ssV1711134073
p1128
(dp1129
g3
g4
sg5
g11
sg7
g8
ssV1785384652
p1130
(dp1131
g3
g14
sg5
g11
sg7
g30
ssV2112859733
p1132
(dp1133
g3
g4
sg5
g15
sg7
g8
ssV2339848393
p1134
(dp1135
g3
g14
sg5
g27
sg7
g30
ssV1954235357
p1136
(dp1137
g3
g14
sg5
g27
sg7
g30
ssV2469953990
p1138
(dp1139
g3
g4
sg5
g6
sg7
g8
ssV2706689713
p1140
(dp1141
g3
g14
sg5
g61
sg7
g64
ssV1843634713
p1142
(dp1143
g3
g4
sg5
g6
sg7
g30
ssV1045284441
p1144
(dp1145
g3
g4
sg5
g6
sg7
g8
ssV2327118535
p1146
(dp1147
g3
g4
sg5
g11
sg7
g30
ssV2822625592
p1148
(dp1149
g3
g4
sg5
g6
sg7
g44
ssV2176533771
p1150
(dp1151
g3
g14
sg5
g27
sg7
g30
ssV1816341994
p1152
(dp1153
g3
g4
sg5
g61
sg7
g8
ssV2887481154
p1154
(dp1155
g3
g4
sg5
g6
sg7
g30
ssV1595594960
p1156
(dp1157
g3
g4
sg5
g6
sg7
g8
ssV2435322624
p1158
(dp1159
g3
g14
sg5
g27
sg7
g30
ssV2310256715
p1160
(dp1161
g3
g4
sg5
g61
sg7
g30
ssV1273817417
p1162
(dp1163
g3
g4
sg5
g61
sg7
g8
ssV1777945141
p1164
(dp1165
g3
g4
sg5
g27
sg7
g64
ssV2630818711
p1166
(dp1167
g3
g4
sg5
g11
sg7
g8
ssV1825840883
p1168
(dp1169
g3
g4
sg5
g15
sg7
g30
ssV1602712610
p1170
(dp1171
g3
g14
sg5
g6
sg7
g64
ssV2858709532
p1172
(dp1173
g3
g14
sg5
g103
sg7
g64
ssV2423668637
p1174
(dp1175
g3
g14
sg5
g61
sg7
g30
ssV2485710301
p1176
(dp1177
g3
g4
sg5
g6
sg7
g8
ssV1222072200
p1178
(dp1179
g3
g4
sg5
g15
sg7
g44
ssV1762178825
p1180
(dp1181
g3
g4
sg5
g15
sg7
g8
ssV2797247467
p1182
(dp1183
g3
g4
sg5
g11
sg7
g30
ssV2428776430
p1184
(dp1185
g3
g14
sg5
g15
sg7
g30
ssV2331407000
p1186
(dp1187
g3
g4
sg5
g61
sg7
g8
ssV1832727450
p1188
(dp1189
g3
g4
sg5
g20
sg7
g30
ssV1887529105
p1190
(dp1191
g3
g4
sg5
g61
sg7
g8
ssV2804925562
p1192
(dp1193
g3
g4
sg5
g15
sg7
g8
ssV2582387672
p1194
(dp1195
g3
g4
sg5
g6
sg7
g8
ssV2534043921
p1196
(dp1197
g3
g4
sg5
g15
sg7
g44
ssV1993952625
p1198
(dp1199
g3
g4
sg5
g6
sg7
g8
ssV2070776595
p1200
(dp1201
g3
g4
sg5
g15
sg7
g8
ssV1704744581
p1202
(dp1203
g3
g4
sg5
g27
sg7
g44
ssV1888628611
p1204
(dp1205
g3
g4
sg5
g15
sg7
g8
ssV1433793732
p1206
(dp1207
g3
g4
sg5
g15
sg7
g8
ssV1879130153
p1208
(dp1209
g3
g4
sg5
g6
sg7
g8
ssV1437282885
p1210
(dp1211
g3
g4
sg5
g15
sg7
g30
ssV2295443055
p1212
(dp1213
g3
g4
sg5
g6
sg7
g44
ssV1763565945
p1214
(dp1215
g3
g4
sg5
g6
sg7
g30
ssV1599449007
p1216
(dp1217
g3
g4
sg5
g61
sg7
g8
ssV2764306630
p1218
(dp1219
g3
g4
sg5
g61
sg7
g8
ssV3108171667
p1220
(dp1221
g3
g4
sg5
g15
sg7
g30
ssV1822269395
p1222
(dp1223
g3
g4
sg5
g61
sg7
g8
ssV1309459122
p1224
(dp1225
g3
g4
sg5
g6
sg7
g8
ssV2880560447
p1226
(dp1227
g3
g4
sg5
g11
sg7
g30
ssV1629158130
p1228
(dp1229
g3
g4
sg5
g15
sg7
g8
ssV2408353751
p1230
(dp1231
g3
g4
sg5
g61
sg7
g8
ssV2514275574
p1232
(dp1233
g3
g14
sg5
g15
sg7
g30
ssV2232799795
p1234
(dp1235
g3
g4
sg5
g11
sg7
g8
ssV1800488812
p1236
(dp1237
g3
g4
sg5
g6
sg7
g44
ssV2671991960
p1238
(dp1239
g3
g4
sg5
g11
sg7
g30
ssV2300214375
p1240
(dp1241
g3
g4
sg5
g61
sg7
g8
ssV1848841943
p1242
(dp1243
g3
g4
sg5
g15
sg7
g30
ssV1908136651
p1244
(dp1245
g3
g14
sg5
g11
sg7
g30
ssV1368064210
p1246
(dp1247
g3
g4
sg5
g61
sg7
g8
ssV1077416192
p1248
(dp1249
g3
g4
sg5
g61
sg7
g8
ssV2495080803
p1250
(dp1251
g3
g4
sg5
g27
sg7
g44
ssV1059153991
p1252
(dp1253
g3
g4
sg5
g11
sg7
g8
ssV1300685760
p1254
(dp1255
g3
g14
sg5
g61
sg7
g30
ssV2380171235
p1256
(dp1257
g3
g4
sg5
g6
sg7
g30
ssV2113707763
p1258
(dp1259
g3
g4
sg5
g15
sg7
g8
ssV2722045963
p1260
(dp1261
g3
g4
sg5
g15
sg7
g8
ssV1280693592
p1262
(dp1263
g3
g4
sg5
g41
sg7
g30
ssV2373255252
p1264
(dp1265
g3
g4
sg5
g27
sg7
g64
ssV2490312060
p1266
(dp1267
g3
g4
sg5
g11
sg7
g8
ssV1535072383
p1268
(dp1269
g3
g4
sg5
g15
sg7
g8
ssV2270206382
p1270
(dp1271
g3
g4
sg5
g6
sg7
g44
ssV1879778817
p1272
(dp1273
g3
g4
sg5
g11
sg7
g64
ssV2446567851
p1274
(dp1275
g3
g4
sg5
g6
sg7
g8
ssV2160830792
p1276
(dp1277
g3
g4
sg5
g11
sg7
g8
ssV1747434920
p1278
(dp1279
g3
g14
sg5
g11
sg7
g30
ssV2275451987
p1280
(dp1281
g3
g4
sg5
g20
sg7
g8
ssV2745303555
p1282
(dp1283
g3
g4
sg5
g6
sg7
g30
ssV1745632325
p1284
(dp1285
g3
g14
sg5
g103
sg7
g64
ssV1727727530
p1286
(dp1287
g3
g4
sg5
g15
sg7
g30
ssV1890240293
p1288
(dp1289
g3
g14
sg5
g6
sg7
g44
ssV1717073433
p1290
(dp1291
g3
g4
sg5
g11
sg7
g8
ssV1871061914
p1292
(dp1293
g3
g14
sg5
g27
sg7
g8
ssV2926478351
p1294
(dp1295
g3
g4
sg5
g11
sg7
g30
ssV2315071971
p1296
(dp1297
g3
g4
sg5
g6
sg7
g8
ssV1167081394
p1298
(dp1299
g3
g4
sg5
g20
sg7
g44
ssV2790437631
p1300
(dp1301
g3
g14
sg5
g15
sg7
g30
ssV1439603061
p1302
(dp1303
g3
g4
sg5
g15
sg7
g30
ssV1913436627
p1304
(dp1305
g3
g4
sg5
g6
sg7
g8
ssV2704711553
p1306
(dp1307
g3
g4
sg5
g61
sg7
g8
ssV2944811934
p1308
(dp1309
g3
g14
sg5
g15
sg7
g8
ssV1734318362
p1310
(dp1311
g3
g4
sg5
g61
sg7
g44
ssV2848326144
p1312
(dp1313
g3
g4
sg5
g27
sg7
g30
ssV1721034545
p1314
(dp1315
g3
g4
sg5
g11
sg7
g8
ssV1870425363
p1316
(dp1317
g3
g14
sg5
g27
sg7
g8
ssV2848088451
p1318
(dp1319
g3
g14
sg5
g15
sg7
g8
ssV2409108395
p1320
(dp1321
g3
g4
sg5
g11
sg7
g8
ssV1916203541
p1322
(dp1323
g3
g14
sg5
g20
sg7
g8
ssV1953987080
p1324
(dp1325
g3
g14
sg5
g6
sg7
g8
ssV1072304107
p1326
(dp1327
g3
g4
sg5
g20
sg7
g44
ssV2350816524
p1328
(dp1329
g3
g4
sg5
g27
sg7
g8
ssV1938347541
p1330
(dp1331
g3
g4
sg5
g11
sg7
g64
ssV1879846724
p1332
(dp1333
g3
g4
sg5
g11
sg7
g8
ssV1668823983
p1334
(dp1335
g3
g4
sg5
g15
sg7
g8
ssV3171253670
p1336
(dp1337
g3
g4
sg5
g11
sg7
g30
ssV2081601367
p1338
(dp1339
g3
g4
sg5
g11
sg7
g8
ssV2477656114
p1340
(dp1341
g3
g4
sg5
g6
sg7
g44
ssV2492431274
p1342
(dp1343
g3
g14
sg5
g6
sg7
g30
ssV2560722877
p1344
(dp1345
g3
g4
sg5
g15
sg7
g8
ssV1847150225
p1346
(dp1347
g3
g14
sg5
g15
sg7
g8
ssV2690601997
p1348
(dp1349
g3
g4
sg5
g15
sg7
g30
ssV2782707502
p1350
(dp1351
g3
g4
sg5
g11
sg7
g44
ssV1591632564
p1352
(dp1353
g3
g4
sg5
g11
sg7
g8
ssV1863748821
p1354
(dp1355
g3
g4
sg5
g11
sg7
g8
ssV1095796153
p1356
(dp1357
g3
g4
sg5
g41
sg7
g8
ssV2542603432
p1358
(dp1359
g3
g4
sg5
g61
sg7
g30
ssV1844475307
p1360
(dp1361
g3
g4
sg5
g15
sg7
g30
ssV1217402220
p1362
(dp1363
g3
g4
sg5
g6
sg7
g8
ssV2512020233
p1364
(dp1365
g3
g4
sg5
g6
sg7
g8
ssV1840686841
p1366
(dp1367
g3
g4
sg5
g15
sg7
g30
ssV1559133374
p1368
(dp1369
g3
g4
sg5
g11
sg7
g44
ssV1456017262
p1370
(dp1371
g3
g4
sg5
g6
sg7
g44
ssV2299205073
p1372
(dp1373
g3
g4
sg5
g15
sg7
g8
ssV1867738613
p1374
(dp1375
g3
g14
sg5
g15
sg7
g30
ssV1785573771
p1376
(dp1377
g3
g4
sg5
g11
sg7
g8
ssV2610163407
p1378
(dp1379
g3
g4
sg5
g61
sg7
g8
ssV1874259974
p1380
(dp1381
g3
g4
sg5
g6
sg7
g8
ssV2633638123
p1382
(dp1383
g3
g4
sg5
g6
sg7
g44
ssV1216652734
p1384
(dp1385
g3
g14
sg5
g103
sg7
g30
ssV2654046093
p1386
(dp1387
g3
g4
sg5
g61
sg7
g44
ssV2108652481
p1388
(dp1389
g3
g4
sg5
g11
sg7
g8
ssV2206527971
p1390
(dp1391
g3
g4
sg5
g6
sg7
g8
ssV1658908317
p1392
(dp1393
g3
g14
sg5
g6
sg7
g8
ssV1878424003
p1394
(dp1395
g3
g4
sg5
g15
sg7
g44
ssV1760679433
p1396
(dp1397
g3
g4
sg5
g15
sg7
g8
ssV2705031232
p1398
(dp1399
g3
g4
sg5
g103
sg7
g64
ssV2083840225
p1400
(dp1401
g3
g4
sg5
g6
sg7
g64
ssV1085562794
p1402
(dp1403
g3
g4
sg5
g61
sg7
g44
ssV1070793077
p1404
(dp1405
g3
g4
sg5
g6
sg7
g8
ssV1453563652
p1406
(dp1407
g3
g4
sg5
g6
sg7
g44
ssV1771792650
p1408
(dp1409
g3
g4
sg5
g6
sg7
g8
ssV1904135293
p1410
(dp1411
g3
g4
sg5
g20
sg7
g8
ssV2675275181
p1412
(dp1413
g3
g4
sg5
g15
sg7
g30
ssV2726244237
p1414
(dp1415
g3
g4
sg5
g6
sg7
g8
ssV2312968481
p1416
(dp1417
g3
g4
sg5
g15
sg7
g8
ssV2856550494
p1418
(dp1419
g3
g4
sg5
g61
sg7
g8
ssV2608924507
p1420
(dp1421
g3
g4
sg5
g15
sg7
g44
ssV1840587742
p1422
(dp1423
g3
g4
sg5
g6
sg7
g8
ssV2598233864
p1424
(dp1425
g3
g14
sg5
g15
sg7
g30
ssV2292600215
p1426
(dp1427
g3
g4
sg5
g6
sg7
g8
ssV1813528752
p1428
(dp1429
g3
g14
sg5
g27
sg7
g8
ssV1764149357
p1430
(dp1431
g3
g14
sg5
g6
sg7
g8
ssV2341227717
p1432
(dp1433
g3
g4
sg5
g15
sg7
g8
ssV2776366303
p1434
(dp1435
g3
g4
sg5
g15
sg7
g30
ssV2188119752
p1436
(dp1437
g3
g4
sg5
g6
sg7
g30
ssV2389248703
p1438
(dp1439
g3
g4
sg5
g27
sg7
g30
ssV2844982351
p1440
(dp1441
g3
g4
sg5
g11
sg7
g30
ssV1082311752
p1442
(dp1443
g3
g4
sg5
g15
sg7
g8
ssV2928740327
p1444
(dp1445
g3
g4
sg5
g27
sg7
g30
ssV1747561052
p1446
(dp1447
g3
g4
sg5
g15
sg7
g8
ssV2664758555
p1448
(dp1449
g3
g4
sg5
g20
sg7
g8
ssV2342565487
p1450
(dp1451
g3
g4
sg5
g15
sg7
g8
ssV2649293533
p1452
(dp1453
g3
g4
sg5
g15
sg7
g8
ssV2185732252
p1454
(dp1455
g3
g4
sg5
g6
sg7
g8
ssV2800908681
p1456
(dp1457
g3
g4
sg5
g11
sg7
g8
ssV2690401704
p1458
(dp1459
g3
g14
sg5
g11
sg7
g8
ssV1894546243
p1460
(dp1461
g3
g4
sg5
g20
sg7
g64
ssV2689683321
p1462
(dp1463
g3
g4
sg5
g61
sg7
g44
ssV1903836303
p1464
(dp1465
g3
g4
sg5
g11
sg7
g8
ssV2016636711
p1466
(dp1467
g3
g4
sg5
g11
sg7
g30
ssV2871873712
p1468
(dp1469
g3
g4
sg5
g6
sg7
g30
ssV1661992613
p1470
(dp1471
g3
g4
sg5
g11
sg7
g44
ssV2271037352
p1472
(dp1473
g3
g4
sg5
g6
sg7
g30
ssV1586303513
p1474
(dp1475
g3
g4
sg5
g6
sg7
g44
ssV2608904951
p1476
(dp1477
g3
g4
sg5
g61
sg7
g30
ssV2352862915
p1478
(dp1479
g3
g14
sg5
g61
sg7
g30
ssV1729661003
p1480
(dp1481
g3
g4
sg5
g6
sg7
g8
ssV2008630695
p1482
(dp1483
g3
g4
sg5
g15
sg7
g30
ssV1099228584
p1484
(dp1485
g3
g4
sg5
g15
sg7
g44
ssV1663951822
p1486
(dp1487
g3
g4
sg5
g61
sg7
g8
ssV2206361761
p1488
(dp1489
g3
g14
sg5
g6
sg7
g30
ssV2357864747
p1490
(dp1491
g3
g14
sg5
g27
sg7
g8
ssV2504323690
p1492
(dp1493
g3
g4
sg5
g41
sg7
g8
ssV1408478885
p1494
(dp1495
g3
g4
sg5
g27
sg7
g44
ssV1862937800
p1496
(dp1497
g3
g14
sg5
g15
sg7
g8
ssV1217650882
p1498
(dp1499
g3
g4
sg5
g15
sg7
g8
ssV2005164537
p1500
(dp1501
g3
g4
sg5
g15
sg7
g30
ssV1240507852
p1502
(dp1503
g3
g4
sg5
g6
sg7
g8
ssV1843283224
p1504
(dp1505
g3
g4
sg5
g27
sg7
g30
ssV2111040205
p1506
(dp1507
g3
g4
sg5
g6
sg7
g30
ssV1936104012
p1508
(dp1509
g3
g14
sg5
g20
sg7
g44
ssV1425545803
p1510
(dp1511
g3
g4
sg5
g15
sg7
g44
ssV43465349
p1512
(dp1513
g3
g4
sg5
g6
sg7
g8
ssV2695649093
p1514
(dp1515
g3
g14
sg5
g27
sg7
g30
ssV1168728283
p1516
(dp1517
g3
g4
sg5
g15
sg7
g30
ssV2114808810
p1518
(dp1519
g3
g4
sg5
g27
sg7
g8
ssV3115400871
p1520
(dp1521
g3
g4
sg5
g6
sg7
g8
ssV1284130440
p1522
(dp1523
g3
g14
sg5
g15
sg7
g8
ssV3053296471
p1524
(dp1525
g3
g4
sg5
g6
sg7
g8
ssV1247586765
p1526
(dp1527
g3
g4
sg5
g15
sg7
g8
ssV1878959310
p1528
(dp1529
g3
g4
sg5
g11
sg7
g8
ssV1132999900
p1530
(dp1531
g3
g4
sg5
g15
sg7
g8
ssV2406291987
p1532
(dp1533
g3
g14
sg5
g15
sg7
g30
ssV2463286903
p1534
(dp1535
g3
g4
sg5
g11
sg7
g30
ssV1811358323
p1536
(dp1537
g3
g14
sg5
g15
sg7
g8
ssV1893837255
p1538
(dp1539
g3
g4
sg5
g15
sg7
g30
ssV2165315272
p1540
(dp1541
g3
g4
sg5
g61
sg7
g44
ssV2588741600
p1542
(dp1543
g3
g14
sg5
g15
sg7
g8
ssV2643118927
p1544
(dp1545
g3
g14
sg5
g20
sg7
g30
ssV1840998010
p1546
(dp1547
g3
g4
sg5
g41
sg7
g30
ssV1571288013
p1548
(dp1549
g3
g4
sg5
g15
sg7
g44
ssV1842306537
p1550
(dp1551
g3
g4
sg5
g11
sg7
g8
ssV2496513862
p1552
(dp1553
g3
g4
sg5
g6
sg7
g30
ssV1238650702
p1554
(dp1555
g3
g4
sg5
g15
sg7
g8
ssV2640148613
p1556
(dp1557
g3
g4
sg5
g15
sg7
g8
ssV2300132555
p1558
(dp1559
g3
g4
sg5
g11
sg7
g8
ssV2563939270
p1560
(dp1561
g3
g4
sg5
g6
sg7
g44
ssV1426331230
p1562
(dp1563
g3
g4
sg5
g11
sg7
g8
ssV3196373475
p1564
(dp1565
g3
g14
sg5
g61
sg7
g64
ssV2268566482
p1566
(dp1567
g3
g4
sg5
g6
sg7
g30
ssV1047273002
p1568
(dp1569
g3
g4
sg5
g6
sg7
g44
ssV2230974612
p1570
(dp1571
g3
g4
sg5
g27
sg7
g8
ssV1671725772
p1572
(dp1573
g3
g4
sg5
g20
sg7
g8
ssV1465193434
p1574
(dp1575
g3
g4
sg5
g6
sg7
g8
ssV2270123145
p1576
(dp1577
g3
g4
sg5
g103
sg7
g8
ssV1654128650
p1578
(dp1579
g3
g4
sg5
g11
sg7
g8
ssV1317372634
p1580
(dp1581
g3
g4
sg5
g20
sg7
g8
ssV2257391490
p1582
(dp1583
g3
g14
sg5
g15
sg7
g8
ssV3123671877
p1584
(dp1585
g3
g4
sg5
g6
sg7
g8
ssV1653911911
p1586
(dp1587
g3
g14
sg5
g6
sg7
g8
ssV2813086545
p1588
(dp1589
g3
g4
sg5
g15
sg7
g64
ssV2794647204
p1590
(dp1591
g3
g4
sg5
g6
sg7
g8
ssV1788769791
p1592
(dp1593
g3
g4
sg5
g15
sg7
g8
ssV1881103992
p1594
(dp1595
g3
g14
sg5
g11
sg7
g30
ssV1819046120
p1596
(dp1597
g3
g4
sg5
g6
sg7
g64
ssV2331382124
p1598
(dp1599
g3
g4
sg5
g61
sg7
g8
ssV1093130001
p1600
(dp1601
g3
g4
sg5
g15
sg7
g30
ssV1628401674
p1602
(dp1603
g3
g14
sg5
g15
sg7
g8
ssV2355697441
p1604
(dp1605
g3
g4
sg5
g6
sg7
g8
ssV1801696915
p1606
(dp1607
g3
g4
sg5
g15
sg7
g44
ssV1414323002
p1608
(dp1609
g3
g4
sg5
g15
sg7
g44
ssV1155313510
p1610
(dp1611
g3
g4
sg5
g15
sg7
g8
ssV2441862452
p1612
(dp1613
g3
g4
sg5
g15
sg7
g30
ssV2301097593
p1614
(dp1615
g3
g4
sg5
g15
sg7
g8
ssV1835461600
p1616
(dp1617
g3
g4
sg5
g11
sg7
g64
ssV2179286194
p1618
(dp1619
g3
g14
sg5
g61
sg7
g8
ssV1874033965
p1620
(dp1621
g3
g4
sg5
g27
sg7
g30
ssV2390180990
p1622
(dp1623
g3
g4
sg5
g15
sg7
g30
ssV2722968981
p1624
(dp1625
g3
g4
sg5
g15
sg7
g8
ssV1793267394
p1626
(dp1627
g3
g14
sg5
g27
sg7
g8
ssV2233005395
p1628
(dp1629
g3
g4
sg5
g6
sg7
g8
ssV1912226102
p1630
(dp1631
g3
g4
sg5
g6
sg7
g8
ssV2538612732
p1632
(dp1633
g3
g14
sg5
g20
sg7
g8
ssV2091581501
p1634
(dp1635
g3
g4
sg5
g11
sg7
g8
ssV2579453675
p1636
(dp1637
g3
g4
sg5
g11
sg7
g30
ssV2321559184
p1638
(dp1639
g3
g14
sg5
g6
sg7
g8
ssV1831711532
p1640
(dp1641
g3
g4
sg5
g11
sg7
g8
ssV1850504885
p1642
(dp1643
g3
g4
sg5
g11
sg7
g30
ssV1967630925
p1644
(dp1645
g3
g4
sg5
g11
sg7
g44
ssV2824976872
p1646
(dp1647
g3
g4
sg5
g6
sg7
g8
ssV1918100581
p1648
(dp1649
g3
g4
sg5
g15
sg7
g8
ssV1809045643
p1650
(dp1651
g3
g4
sg5
g61
sg7
g30
ssV1000056512
p1652
(dp1653
g3
g4
sg5
g27
sg7
g30
ssV2537618544
p1654
(dp1655
g3
g4
sg5
g11
sg7
g8
ssV2437604823
p1656
(dp1657
g3
g14
sg5
g15
sg7
g44
ssV2300420474
p1658
(dp1659
g3
g14
sg5
g61
sg7
g8
ssV1758162851
p1660
(dp1661
g3
g4
sg5
g20
sg7
g8
ssV2310425061
p1662
(dp1663
g3
g14
sg5
g15
sg7
g8
ssV1607398312
p1664
(dp1665
g3
g4
sg5
g11
sg7
g8
ssV1879061103
p1666
(dp1667
g3
g4
sg5
g11
sg7
g8
ssV1163165185
p1668
(dp1669
g3
g4
sg5
g6
sg7
g8
ssV2242908443
p1670
(dp1671
g3
g14
sg5
g15
sg7
g8
ssV1864350213
p1672
(dp1673
g3
g4
sg5
g11
sg7
g8
ssV1562655870
p1674
(dp1675
g3
g4
sg5
g27
sg7
g8
ssV2911257187
p1676
(dp1677
g3
g4
sg5
g27
sg7
g30
ssV2011480513
p1678
(dp1679
g3
g4
sg5
g27
sg7
g44
ssV2813715602
p1680
(dp1681
g3
g14
sg5
g11
sg7
g8
ssV1606033650
p1682
(dp1683
g3
g4
sg5
g6
sg7
g44
ssV1773322485
p1684
(dp1685
g3
g14
sg5
g11
sg7
g8
ssV2039354763
p1686
(dp1687
g3
g4
sg5
g11
sg7
g8
ssV1830503722
p1688
(dp1689
g3
g14
sg5
g15
sg7
g30
ssV2535883512
p1690
(dp1691
g3
g4
sg5
g6
sg7
g30
ssV2918978982
p1692
(dp1693
g3
g4
sg5
g11
sg7
g64
ssV2658395034
p1694
(dp1695
g3
g4
sg5
g15
sg7
g30
ssV1581595273
p1696
(dp1697
g3
g4
sg5
g15
sg7
g8
ssV1748047122
p1698
(dp1699
g3
g14
sg5
g6
sg7
g8
ssV1880070643
p1700
(dp1701
g3
g4
sg5
g15
sg7
g8
ssV2058804685
p1702
(dp1703
g3
g14
sg5
g61
sg7
g30
ssV1085504381
p1704
(dp1705
g3
g4
sg5
g6
sg7
g8
ssV1838113625
p1706
(dp1707
g3
g4
sg5
g27
sg7
g30
ssV1339581950
p1708
(dp1709
g3
g14
sg5
g11
sg7
g8
ssV1965713822
p1710
(dp1711
g3
g4
sg5
g6
sg7
g8
ssV1839518480
p1712
(dp1713
g3
g14
sg5
g61
sg7
g8
ssV2830071124
p1714
(dp1715
g3
g4
sg5
g6
sg7
g8
ssV1131296744
p1716
(dp1717
g3
g4
sg5
g6
sg7
g8
ssV2164601452
p1718
(dp1719
g3
g14
sg5
g11
sg7
g8
ssV2272614240
p1720
(dp1721
g3
g14
sg5
g6
sg7
g30
ssV1761129900
p1722
(dp1723
g3
g4
sg5
g6
sg7
g8
ssV2253677264
p1724
(dp1725
g3
g4
sg5
g6
sg7
g30
ssV1135270763
p1726
(dp1727
g3
g4
sg5
g15
sg7
g8
ssV1910940833
p1728
(dp1729
g3
g4
sg5
g6
sg7
g8
ssV2440572542
p1730
(dp1731
g3
g4
sg5
g6
sg7
g30
ssV2446564031
p1732
(dp1733
g3
g4
sg5
g15
sg7
g8
ssV2879829467
p1734
(dp1735
g3
g14
sg5
g11
sg7
g30
ssV2798122095
p1736
(dp1737
g3
g4
sg5
g15
sg7
g8
ssV1788499767
p1738
(dp1739
g3
g4
sg5
g11
sg7
g44
ssV2665457347
p1740
(dp1741
g3
g4
sg5
g6
sg7
g30
ssV1339466254
p1742
(dp1743
g3
g4
sg5
g15
sg7
g8
ssV2616699483
p1744
(dp1745
g3
g14
sg5
g61
sg7
g64
ssV1876360390
p1746
(dp1747
g3
g4
sg5
g15
sg7
g30
ssV1323618883
p1748
(dp1749
g3
g4
sg5
g15
sg7
g44
ssV2660985383
p1750
(dp1751
g3
g4
sg5
g6
sg7
g8
ssV2257008791
p1752
(dp1753
g3
g4
sg5
g11
sg7
g8
ssV2024932054
p1754
(dp1755
g3
g4
sg5
g27
sg7
g30
ssV1730491081
p1756
(dp1757
g3
g4
sg5
g61
sg7
g44
ssV1707022000
p1758
(dp1759
g3
g14
sg5
g27
sg7
g8
ssV2815452554
p1760
(dp1761
g3
g4
sg5
g41
sg7
g30
ssV2243558527
p1762
(dp1763
g3
g14
sg5
g11
sg7
g8
ssV1786018667
p1764
(dp1765
g3
g4
sg5
g11
sg7
g30
ssV1243629662
p1766
(dp1767
g3
g4
sg5
g15
sg7
g44
ssV2671234942
p1768
(dp1769
g3
g4
sg5
g11
sg7
g8
ssV2622026331
p1770
(dp1771
g3
g4
sg5
g6
sg7
g30
ssV2719394111
p1772
(dp1773
g3
g14
sg5
g61
sg7
g44
ssV1813872542
p1774
(dp1775
g3
g14
sg5
g41
sg7
g30
ssV1483114385
p1776
(dp1777
g3
g4
sg5
g15
sg7
g44
ssV2480368647
p1778
(dp1779
g3
g4
sg5
g15
sg7
g30
ssV2233483874
p1780
(dp1781
g3
g4
sg5
g61
sg7
g8
ssV1072778333
p1782
(dp1783
g3
g4
sg5
g6
sg7
g8
ssV2137862441
p1784
(dp1785
g3
g4
sg5
g15
sg7
g30
ssV1888359931
p1786
(dp1787
g3
g4
sg5
g6
sg7
g30
ssV1417677931
p1788
(dp1789
g3
g4
sg5
g41
sg7
g30
ssV1736156057
p1790
(dp1791
g3
g14
sg5
g11
sg7
g8
ssV2329691643
p1792
(dp1793
g3
g4
sg5
g61
sg7
g30
ssV2722617213
p1794
(dp1795
g3
g4
sg5
g15
sg7
g8
ssV1810323837
p1796
(dp1797
g3
g14
sg5
g15
sg7
g8
ssV1210691424
p1798
(dp1799
g3
g4
sg5
g6
sg7
g8
ssV2074899745
p1800
(dp1801
g3
g4
sg5
g61
sg7
g8
ssV2347570787
p1802
(dp1803
g3
g4
sg5
g6
sg7
g30
ssV2539755142
p1804
(dp1805
g3
g4
sg5
g11
sg7
g8
ssV2327289553
p1806
(dp1807
g3
g4
sg5
g6
sg7
g8
ssV1668850612
p1808
(dp1809
g3
g4
sg5
g11
sg7
g44
ssV1776450881
p1810
(dp1811
g3
g4
sg5
g15
sg7
g30
ssV1718522074
p1812
(dp1813
g3
g4
sg5
g11
sg7
g8
ssV2156376185
p1814
(dp1815
g3
g14
sg5
g61
sg7
g30
ssV1680975557
p1816
(dp1817
g3
g14
sg5
g103
sg7
g8
ssV2283802445
p1818
(dp1819
g3
g4
sg5
g27
sg7
g8
ssV3209997372
p1820
(dp1821
g3
g4
sg5
g20
sg7
g30
ssV2265706987
p1822
(dp1823
g3
g4
sg5
g11
sg7
g8
ssV1832218692
p1824
(dp1825
g3
g4
sg5
g6
sg7
g8
ssV2548427222
p1826
(dp1827
g3
g4
sg5
g61
sg7
g8
ssV2182851475
p1828
(dp1829
g3
g4
sg5
g11
sg7
g44
ssV2251016034
p1830
(dp1831
g3
g4
sg5
g6
sg7
g8
ssV1965157097
p1832
(dp1833
g3
g4
sg5
g6
sg7
g44
ssV2492951980
p1834
(dp1835
g3
g4
sg5
g27
sg7
g8
ssV1363163922
p1836
(dp1837
g3
g4
sg5
g61
sg7
g8
ssV2501396470
p1838
(dp1839
g3
g4
sg5
g6
sg7
g8
ssV1865169233
p1840
(dp1841
g3
g4
sg5
g6
sg7
g8
ssV2543460603
p1842
(dp1843
g3
g14
sg5
g11
sg7
g44
ssV1693053184
p1844
(dp1845
g3
g4
sg5
g103
sg7
g64
ssV2279362267
p1846
(dp1847
g3
g4
sg5
g61
sg7
g30
ssV1733687943
p1848
(dp1849
g3
g14
sg5
g15
sg7
g8
ssV1706779313
p1850
(dp1851
g3
g4
sg5
g15
sg7
g8
ssV1342165903
p1852
(dp1853
g3
g4
sg5
g15
sg7
g8
ssV1205540905
p1854
(dp1855
g3
g14
sg5
g103
sg7
g8
ssV1846242183
p1856
(dp1857
g3
g4
sg5
g27
sg7
g8
ssV2675181071
p1858
(dp1859
g3
g4
sg5
g15
sg7
g8
ssV1445681057
p1860
(dp1861
g3
g4
sg5
g6
sg7
g44
ssV3191897454
p1862
(dp1863
g3
g4
sg5
g41
sg7
g44
ssV1703387805
p1864
(dp1865
g3
g4
sg5
g27
sg7
g8
ssV1664282381
p1866
(dp1867
g3
g14
sg5
g15
sg7
g8
ssV1792108922
p1868
(dp1869
g3
g4
sg5
g11
sg7
g30
ssV3037651094
p1870
(dp1871
g3
g14
sg5
g6
sg7
g30
ssV1846837671
p1872
(dp1873
g3
g14
sg5
g15
sg7
g8
ssV2144732091
p1874
(dp1875
g3
g4
sg5
g27
sg7
g30
ssV3212181255
p1876
(dp1877
g3
g4
sg5
g15
sg7
g8
ssV67406402
p1878
(dp1879
g3
g4
sg5
g15
sg7
g8
ssV1759016503
p1880
(dp1881
g3
g14
sg5
g6
sg7
g8
ssV22885151
p1882
(dp1883
g3
g4
sg5
g20
sg7
g44
ssV2385008674
p1884
(dp1885
g3
g4
sg5
g6
sg7
g30
ssV1407883302
p1886
(dp1887
g3
g4
sg5
g15
sg7
g8
ssV2480224850
p1888
(dp1889
g3
g14
sg5
g11
sg7
g8
ssV2401335332
p1890
(dp1891
g3
g14
sg5
g6
sg7
g30
ssV2758837101
p1892
(dp1893
g3
g4
sg5
g61
sg7
g8
ssV2499208892
p1894
(dp1895
g3
g4
sg5
g27
sg7
g30
ssV1729047741
p1896
(dp1897
g3
g4
sg5
g6
sg7
g8
ssV2114853170
p1898
(dp1899
g3
g4
sg5
g11
sg7
g30
ssV49202000
p1900
(dp1901
g3
g4
sg5
g61
sg7
g8
ssV1549030550
p1902
(dp1903
g3
g4
sg5
g6
sg7
g8
ssV2040664751
p1904
(dp1905
g3
g4
sg5
g15
sg7
g64
ssV2267788063
p1906
(dp1907
g3
g14
sg5
g15
sg7
g30
ssV1702092531
p1908
(dp1909
g3
g4
sg5
g15
sg7
g30
ssV1788175537
p1910
(dp1911
g3
g4
sg5
g11
sg7
g8
ssV3059311203
p1912
(dp1913
g3
g4
sg5
g15
sg7
g30
ssV1407279765
p1914
(dp1915
g3
g4
sg5
g15
sg7
g44
ssV2615101877
p1916
(dp1917
g3
g4
sg5
g11
sg7
g8
ssV2233678780
p1918
(dp1919
g3
g4
sg5
g6
sg7
g8
ssV2625501947
p1920
(dp1921
g3
g4
sg5
g6
sg7
g8
ssV1853458031
p1922
(dp1923
g3
g4
sg5
g11
sg7
g30
ssV2808456882
p1924
(dp1925
g3
g4
sg5
g6
sg7
g8
ssV1436588442
p1926
(dp1927
g3
g14
sg5
g27
sg7
g44
ssV2820317095
p1928
(dp1929
g3
g14
sg5
g61
sg7
g30
ssV1743137672
p1930
(dp1931
g3
g4
sg5
g27
sg7
g8
ssV2826956437
p1932
(dp1933
g3
g4
sg5
g11
sg7
g30
ssV2611435467
p1934
(dp1935
g3
g4
sg5
g6
sg7
g44
ssV1888869987
p1936
(dp1937
g3
g4
sg5
g61
sg7
g8
ssV1504734535
p1938
(dp1939
g3
g4
sg5
g6
sg7
g30
ssV2002830027
p1940
(dp1941
g3
g4
sg5
g6
sg7
g30
ssV1150199684
p1942
(dp1943
g3
g4
sg5
g11
sg7
g44
ssV1783343890
p1944
(dp1945
g3
g4
sg5
g15
sg7
g30
ssV2292717621
p1946
(dp1947
g3
g4
sg5
g27
sg7
g30
ssV2977019562
p1948
(dp1949
g3
g4
sg5
g6
sg7
g8
ssV1294249763
p1950
(dp1951
g3
g14
sg5
g15
sg7
g8
ssV2720922411
p1952
(dp1953
g3
g14
sg5
g15
sg7
g30
ssV2692899093
p1954
(dp1955
g3
g4
sg5
g6
sg7
g30
ssV1219978810
p1956
(dp1957
g3
g4
sg5
g15
sg7
g8
ssV2562694481
p1958
(dp1959
g3
g4
sg5
g15
sg7
g8
ssV1450983574
p1960
(dp1961
g3
g4
sg5
g15
sg7
g44
ssV1941510572
p1962
(dp1963
g3
g4
sg5
g61
sg7
g30
ssV2403861287
p1964
(dp1965
g3
g4
sg5
g6
sg7
g30
ssV2245118817
p1966
(dp1967
g3
g14
sg5
g15
sg7
g64
ssV3216542700
p1968
(dp1969
g3
g14
sg5
g6
sg7
g8
ssV3178960643
p1970
(dp1971
g3
g14
sg5
g61
sg7
g8
ssV1904925072
p1972
(dp1973
g3
g4
sg5
g11
sg7
g64
ssV2837585864
p1974
(dp1975
g3
g4
sg5
g6
sg7
g30
ssV3186247615
p1976
(dp1977
g3
g4
sg5
g11
sg7
g8
ssV1659163742
p1978
(dp1979
g3
g14
sg5
g15
sg7
g8
ssV2610885991
p1980
(dp1981
g3
g4
sg5
g6
sg7
g30
ssV2509440967
p1982
(dp1983
g3
g4
sg5
g11
sg7
g30
ssV1659013510
p1984
(dp1985
g3
g4
sg5
g15
sg7
g44
ssV2430972351
p1986
(dp1987
g3
g4
sg5
g15
sg7
g30
ssV1740803694
p1988
(dp1989
g3
g4
sg5
g15
sg7
g8
ssV2272407802
p1990
(dp1991
g3
g14
sg5
g6
sg7
g30
ssV2251045950
p1992
(dp1993
g3
g4
sg5
g11
sg7
g30
ssV2528489734
p1994
(dp1995
g3
g4
sg5
g27
sg7
g30
ssV2193592587
p1996
(dp1997
g3
g4
sg5
g6
sg7
g30
ssV2397453880
p1998
(dp1999
g3
g4
sg5
g61
sg7
g30
ssV2027300580
p2000
(dp2001
g3
g14
sg5
g15
sg7
g8
ssV3225143501
p2002
(dp2003
g3
g4
sg5
g11
sg7
g8
ssV2358050391
p2004
(dp2005
g3
g4
sg5
g6
sg7
g30
ssV1612339233
p2006
(dp2007
g3
g4
sg5
g41
sg7
g8
ssV2174600425
p2008
(dp2009
g3
g14
sg5
g27
sg7
g8
ssV1832695380
p2010
(dp2011
g3
g4
sg5
g61
sg7
g30
ssV1740937421
p2012
(dp2013
g3
g14
sg5
g15
sg7
g64
ssV3095657495
p2014
(dp2015
g3
g4
sg5
g6
sg7
g30
ssV1758879437
p2016
(dp2017
g3
g4
sg5
g6
sg7
g8
ssV3169139663
p2018
(dp2019
g3
g4
sg5
g6
sg7
g8
ssV1658643883
p2020
(dp2021
g3
g14
sg5
g103
sg7
g8
ssV2005126320
p2022
(dp2023
g3
g4
sg5
g15
sg7
g8
ssV1099126897
p2024
(dp2025
g3
g4
sg5
g41
sg7
g8
ssV3085160073
p2026
(dp2027
g3
g14
sg5
g6
sg7
g30
ssV2091990107
p2028
(dp2029
g3
g4
sg5
g6
sg7
g30
ssV3259907870
p2030
(dp2031
g3
g14
sg5
g6
sg7
g8
ssV2099366144
p2032
(dp2033
g3
g4
sg5
g61
sg7
g30
ssV1868606174
p2034
(dp2035
g3
g4
sg5
g6
sg7
g30
ssV2137599524
p2036
(dp2037
g3
g4
sg5
g27
sg7
g30
ssV2424095957
p2038
(dp2039
g3
g4
sg5
g6
sg7
g8
ssV2216646335
p2040
(dp2041
g3
g4
sg5
g61
sg7
g8
ssV2442151792
p2042
(dp2043
g3
g4
sg5
g11
sg7
g30
ssV1182037630
p2044
(dp2045
g3
g4
sg5
g20
sg7
g8
ssV1583431063
p2046
(dp2047
g3
g14
sg5
g15
sg7
g30
ssV2608802865
p2048
(dp2049
g3
g14
sg5
g15
sg7
g30
ssV1810288755
p2050
(dp2051
g3
g14
sg5
g15
sg7
g8
ssV2196914955
p2052
(dp2053
g3
g4
sg5
g20
sg7
g44
ssV2122894743
p2054
(dp2055
g3
g4
sg5
g27
sg7
g64
ssV1978598113
p2056
(dp2057
g3
g4
sg5
g6
sg7
g8
ssV1868678142
p2058
(dp2059
g3
g4
sg5
g15
sg7
g8
ssV2659774670
p2060
(dp2061
g3
g4
sg5
g11
sg7
g44
ssV1599841142
p2062
(dp2063
g3
g4
sg5
g15
sg7
g8
ssV2566961945
p2064
(dp2065
g3
g4
sg5
g15
sg7
g8
ssV2560301405
p2066
(dp2067
g3
g4
sg5
g15
sg7
g8
ssV2458637554
p2068
(dp2069
g3
g4
sg5
g6
sg7
g30
ssV1278713991
p2070
(dp2071
g3
g4
sg5
g15
sg7
g30
ssV1753249671
p2072
(dp2073
g3
g14
sg5
g6
sg7
g30
ssV2737491320
p2074
(dp2075
g3
g14
sg5
g20
sg7
g30
ssV2161412015
p2076
(dp2077
g3
g4
sg5
g15
sg7
g64
ssV1091761162
p2078
(dp2079
g3
g4
sg5
g6
sg7
g8
ssV2277951605
p2080
(dp2081
g3
g4
sg5
g15
sg7
g8
ssV1883996911
p2082
(dp2083
g3
g4
sg5
g11
sg7
g8
ssV1912805047
p2084
(dp2085
g3
g4
sg5
g6
sg7
g8
ssV1790923821
p2086
(dp2087
g3
g4
sg5
g15
sg7
g44
ssV2216862800
p2088
(dp2089
g3
g4
sg5
g15
sg7
g30
ssV1655756205
p2090
(dp2091
g3
g4
sg5
g15
sg7
g8
ssV2356851304
p2092
(dp2093
g3
g14
sg5
g15
sg7
g8
ssV1086517472
p2094
(dp2095
g3
g4
sg5
g6
sg7
g8
ssV2041223004
p2096
(dp2097
g3
g4
sg5
g11
sg7
g30
ssV1923306441
p2098
(dp2099
g3
g4
sg5
g27
sg7
g8
ssV3173914124
p2100
(dp2101
g3
g4
sg5
g41
sg7
g30
ssV1558107674
p2102
(dp2103
g3
g4
sg5
g15
sg7
g8
ssV1630262283
p2104
(dp2105
g3
g4
sg5
g15
sg7
g8
ssV1606643417
p2106
(dp2107
g3
g4
sg5
g41
sg7
g44
ssV2295260380
p2108
(dp2109
g3
g4
sg5
g6
sg7
g8
ssV2028512770
p2110
(dp2111
g3
g4
sg5
g15
sg7
g30
ssV3218164590
p2112
(dp2113
g3
g14
sg5
g15
sg7
g30
ssV2096022380
p2114
(dp2115
g3
g4
sg5
g15
sg7
g30
ssV2319863523
p2116
(dp2117
g3
g14
sg5
g11
sg7
g44
ssV3212877060
p2118
(dp2119
g3
g4
sg5
g11
sg7
g8
ssV2598084612
p2120
(dp2121
g3
g4
sg5
g11
sg7
g8
ssV2715361861
p2122
(dp2123
g3
g4
sg5
g11
sg7
g44
ssV2269751351
p2124
(dp2125
g3
g4
sg5
g15
sg7
g8
ssV1504414927
p2126
(dp2127
g3
g4
sg5
g11
sg7
g8
ssV2856382664
p2128
(dp2129
g3
g14
sg5
g41
sg7
g64
ssV2607301817
p2130
(dp2131
g3
g4
sg5
g15
sg7
g8
ssV1345324695
p2132
(dp2133
g3
g4
sg5
g11
sg7
g8
ssV2414219790
p2134
(dp2135
g3
g14
sg5
g6
sg7
g8
ssV1315718013
p2136
(dp2137
g3
g4
sg5
g6
sg7
g8
ssV1045647587
p2138
(dp2139
g3
g4
sg5
g11
sg7
g8
ssV1252559512
p2140
(dp2141
g3
g4
sg5
g15
sg7
g8
ssV1791600157
p2142
(dp2143
g3
g4
sg5
g20
sg7
g30
ssV1803874025
p2144
(dp2145
g3
g4
sg5
g6
sg7
g30
ssV1734380083
p2146
(dp2147
g3
g14
sg5
g15
sg7
g8
ssV1153511521
p2148
(dp2149
g3
g14
sg5
g15
sg7
g8
ssV2461401527
p2150
(dp2151
g3
g14
sg5
g15
sg7
g8
ssV2689280681
p2152
(dp2153
g3
g4
sg5
g6
sg7
g8
ssV2300801527
p2154
(dp2155
g3
g14
sg5
g103
sg7
g64
ssV2546877980
p2156
(dp2157
g3
g4
sg5
g27
sg7
g8
ssV2643492720
p2158
(dp2159
g3
g4
sg5
g6
sg7
g44
ssV2683921235
p2160
(dp2161
g3
g4
sg5
g61
sg7
g30
ssV3046519217
p2162
(dp2163
g3
g4
sg5
g103
sg7
g30
ssV1649255173
p2164
(dp2165
g3
g14
sg5
g6
sg7
g64
ssV1939454535
p2166
(dp2167
g3
g4
sg5
g15
sg7
g64
ssV2016458675
p2168
(dp2169
g3
g4
sg5
g27
sg7
g30
ssV2874402390
p2170
(dp2171
g3
g14
sg5
g11
sg7
g30
ssV2359906260
p2172
(dp2173
g3
g4
sg5
g6
sg7
g30
ssV1571367417
p2174
(dp2175
g3
g4
sg5
g15
sg7
g8
ssV1670881727
p2176
(dp2177
g3
g4
sg5
g15
sg7
g8
ssV2273097695
p2178
(dp2179
g3
g4
sg5
g27
sg7
g30
ssV2095203825
p2180
(dp2181
g3
g4
sg5
g15
sg7
g8
ssV1907548435
p2182
(dp2183
g3
g4
sg5
g6
sg7
g44
ssV2491784077
p2184
(dp2185
g3
g14
sg5
g6
sg7
g8
ssV2103200284
p2186
(dp2187
g3
g4
sg5
g11
sg7
g8
ssV2302340807
p2188
(dp2189
g3
g4
sg5
g15
sg7
g44
ssV2185615444
p2190
(dp2191
g3
g14
sg5
g61
sg7
g8
ssV2685939441
p2192
(dp2193
g3
g4
sg5
g11
sg7
g8
ssV1647554923
p2194
(dp2195
g3
g4
sg5
g6
sg7
g64
ssV2653601134
p2196
(dp2197
g3
g4
sg5
g11
sg7
g8
ssV2747643807
p2198
(dp2199
g3
g4
sg5
g15
sg7
g8
ssV2068032752
p2200
(dp2201
g3
g4
sg5
g61
sg7
g8
ssV1822217501
p2202
(dp2203
g3
g4
sg5
g15
sg7
g8
ssV2570299831
p2204
(dp2205
g3
g4
sg5
g11
sg7
g44
ssV2029970055
p2206
(dp2207
g3
g4
sg5
g15
sg7
g8
ssV2127663061
p2208
(dp2209
g3
g4
sg5
g15
sg7
g30
ssV1105953575
p2210
(dp2211
g3
g4
sg5
g6
sg7
g44
ssV1596789133
p2212
(dp2213
g3
g4
sg5
g11
sg7
g8
ssV1223413445
p2214
(dp2215
g3
g4
sg5
g61
sg7
g30
ssV2871090720
p2216
(dp2217
g3
g4
sg5
g61
sg7
g8
ssV2185778163
p2218
(dp2219
g3
g4
sg5
g61
sg7
g30
ssV1663382171
p2220
(dp2221
g3
g4
sg5
g6
sg7
g8
ssV1854096291
p2222
(dp2223
g3
g4
sg5
g20
sg7
g44
ssV2372881040
p2224
(dp2225
g3
g4
sg5
g6
sg7
g8
ssV1371359263
p2226
(dp2227
g3
g4
sg5
g15
sg7
g30
ssV2039378617
p2228
(dp2229
g3
g4
sg5
g61
sg7
g44
ssV2149035802
p2230
(dp2231
g3
g4
sg5
g20
sg7
g8
ssV2269046802
p2232
(dp2233
g3
g14
sg5
g6
sg7
g30
ssV2111913667
p2234
(dp2235
g3
g4
sg5
g61
sg7
g30
ssV1657602061
p2236
(dp2237
g3
g4
sg5
g20
sg7
g8
ssV1775135170
p2238
(dp2239
g3
g4
sg5
g27
sg7
g8
ssV2008133701
p2240
(dp2241
g3
g14
sg5
g61
sg7
g30
ssV2526375621
p2242
(dp2243
g3
g4
sg5
g11
sg7
g8
ssV2240448475
p2244
(dp2245
g3
g4
sg5
g11
sg7
g8
ssV1763118212
p2246
(dp2247
g3
g4
sg5
g27
sg7
g44
ssV1732397022
p2248
(dp2249
g3
g4
sg5
g11
sg7
g44
ssV1377769544
p2250
(dp2251
g3
g4
sg5
g61
sg7
g8
ssV1607615535
p2252
(dp2253
g3
g4
sg5
g15
sg7
g8
ssV1293736151
p2254
(dp2255
g3
g14
sg5
g15
sg7
g8
ssV1822742032
p2256
(dp2257
g3
g14
sg5
g6
sg7
g8
ssV2280137471
p2258
(dp2259
g3
g4
sg5
g15
sg7
g8
ssV1805552233
p2260
(dp2261
g3
g4
sg5
g61
sg7
g8
ssV1715014170
p2262
(dp2263
g3
g4
sg5
g61
sg7
g8
ssV2211674960
p2264
(dp2265
g3
g4
sg5
g6
sg7
g44
ssV2213378071
p2266
(dp2267
g3
g14
sg5
g6
sg7
g8
ssV2655439467
p2268
(dp2269
g3
g4
sg5
g27
sg7
g30
ssV2441431507
p2270
(dp2271
g3
g4
sg5
g15
sg7
g8
ssV2194141151
p2272
(dp2273
g3
g4
sg5
g15
sg7
g8
ssV1419649945
p2274
(dp2275
g3
g4
sg5
g11
sg7
g8
ssV2820147850
p2276
(dp2277
g3
g4
sg5
g27
sg7
g30
ssV3287905451
p2278
(dp2279
g3
g4
sg5
g6
sg7
g8
ssV1591037164
p2280
(dp2281
g3
g4
sg5
g15
sg7
g8
ssV2592522171
p2282
(dp2283
g3
g14
sg5
g61
sg7
g30
ssV1216109575
p2284
(dp2285
g3
g4
sg5
g6
sg7
g8
ssV1815876407
p2286
(dp2287
g3
g4
sg5
g61
sg7
g8
ssV1683262534
p2288
(dp2289
g3
g4
sg5
g6
sg7
g8
ssV2356313963
p2290
(dp2291
g3
g4
sg5
g15
sg7
g44
ssV2734405295
p2292
(dp2293
g3
g14
sg5
g15
sg7
g8
ssV2398724721
p2294
(dp2295
g3
g4
sg5
g11
sg7
g8
ssV2279196033
p2296
(dp2297
g3
g14
sg5
g6
sg7
g8
ssV1891044002
p2298
(dp2299
g3
g4
sg5
g11
sg7
g8
ssV1749153194
p2300
(dp2301
g3
g4
sg5
g41
sg7
g8
ssV1958048501
p2302
(dp2303
g3
g4
sg5
g6
sg7
g30
ssV2682306645
p2304
(dp2305
g3
g14
sg5
g15
sg7
g44
ssV1905684062
p2306
(dp2307
g3
g4
sg5
g6
sg7
g8
ssV1839501807
p2308
(dp2309
g3
g4
sg5
g6
sg7
g8
ssV1668837942
p2310
(dp2311
g3
g4
sg5
g6
sg7
g30
ssV2209946014
p2312
(dp2313
g3
g4
sg5
g61
sg7
g8
ssV1623043823
p2314
(dp2315
g3
g4
sg5
g11
sg7
g8
ssV1729586027
p2316
(dp2317
g3
g4
sg5
g61
sg7
g8
ssV1723929691
p2318
(dp2319
g3
g4
sg5
g6
sg7
g30
ssV2728552247
p2320
(dp2321
g3
g4
sg5
g15
sg7
g8
ssV2613058012
p2322
(dp2323
g3
g4
sg5
g27
sg7
g8
ssV2484696914
p2324
(dp2325
g3
g4
sg5
g11
sg7
g30
ssV1744412633
p2326
(dp2327
g3
g4
sg5
g27
sg7
g8
ssV2852283045
p2328
(dp2329
g3
g4
sg5
g15
sg7
g8
ssV1858400464
p2330
(dp2331
g3
g4
sg5
g6
sg7
g8
ssV1588576784
p2332
(dp2333
g3
g4
sg5
g11
sg7
g8
ssV2739709015
p2334
(dp2335
g3
g4
sg5
g15
sg7
g8
ssV1844290793
p2336
(dp2337
g3
g4
sg5
g11
sg7
g30
ssV3179603174
p2338
(dp2339
g3
g14
sg5
g11
sg7
g30
ssV1471289553
p2340
(dp2341
g3
g4
sg5
g15
sg7
g30
ssV3115402210
p2342
(dp2343
g3
g14
sg5
g11
sg7
g30
ssV3141576902
p2344
(dp2345
g3
g4
sg5
g6
sg7
g44
ssV2398214134
p2346
(dp2347
g3
g4
sg5
g61
sg7
g30
ssV1908805083
p2348
(dp2349
g3
g4
sg5
g20
sg7
g8
ssV2119673924
p2350
(dp2351
g3
g4
sg5
g15
sg7
g30
ssV2439850033
p2352
(dp2353
g3
g14
sg5
g15
sg7
g30
ssV2941073947
p2354
(dp2355
g3
g4
sg5
g15
sg7
g8
ssV1050263283
p2356
(dp2357
g3
g4
sg5
g15
sg7
g8
ssV1826472915
p2358
(dp2359
g3
g4
sg5
g6
sg7
g30
ssV2307027872
p2360
(dp2361
g3
g4
sg5
g27
sg7
g30
ssV2057665367
p2362
(dp2363
g3
g4
sg5
g15
sg7
g8
ssV2778702865
p2364
(dp2365
g3
g4
sg5
g6
sg7
g30
ssV1180065853
p2366
(dp2367
g3
g4
sg5
g15
sg7
g8
ssV1760347330
p2368
(dp2369
g3
g4
sg5
g27
sg7
g8
ssV1405271484
p2370
(dp2371
g3
g4
sg5
g6
sg7
g44
ssV1820438203
p2372
(dp2373
g3
g14
sg5
g11
sg7
g8
ssV1923524237
p2374
(dp2375
g3
g4
sg5
g15
sg7
g8
ssV2916405137
p2376
(dp2377
g3
g4
sg5
g6
sg7
g8
ssV2027628523
p2378
(dp2379
g3
g4
sg5
g27
sg7
g8
ssV1801120292
p2380
(dp2381
g3
g4
sg5
g6
sg7
g8
ssV2288099201
p2382
(dp2383
g3
g4
sg5
g61
sg7
g30
ssV1880309142
p2384
(dp2385
g3
g4
sg5
g11
sg7
g8
ssV1916398973
p2386
(dp2387
g3
g4
sg5
g15
sg7
g44
ssV2112764677
p2388
(dp2389
g3
g4
sg5
g20
sg7
g8
ssV2763027141
p2390
(dp2391
g3
g4
sg5
g15
sg7
g8
ssV2169084413
p2392
(dp2393
g3
g14
sg5
g61
sg7
g8
ssV1666939372
p2394
(dp2395
g3
g4
sg5
g11
sg7
g30
ssV3174687897
p2396
(dp2397
g3
g4
sg5
g6
sg7
g8
ssV3136730833
p2398
(dp2399
g3
g4
sg5
g6
sg7
g30
ssV1950917351
p2400
(dp2401
g3
g4
sg5
g61
sg7
g8
ssV1706332083
p2402
(dp2403
g3
g4
sg5
g6
sg7
g30
ssV1744323660
p2404
(dp2405
g3
g14
sg5
g27
sg7
g8
ssV2970974730
p2406
(dp2407
g3
g14
sg5
g11
sg7
g30
ssV2173414305
p2408
(dp2409
g3
g4
sg5
g15
sg7
g8
ssV2696559771
p2410
(dp2411
g3
g4
sg5
g20
sg7
g8
ssV3203352097
p2412
(dp2413
g3
g14
sg5
g6
sg7
g8
ssV2284610294
p2414
(dp2415
g3
g4
sg5
g6
sg7
g8
ssV2925230603
p2416
(dp2417
g3
g4
sg5
g15
sg7
g30
ssV2419586747
p2418
(dp2419
g3
g4
sg5
g6
sg7
g8
ssV1354243132
p2420
(dp2421
g3
g14
sg5
g103
sg7
g8
ssV1428406927
p2422
(dp2423
g3
g14
sg5
g6
sg7
g8
ssV2299128991
p2424
(dp2425
g3
g4
sg5
g6
sg7
g30
ssV1803443643
p2426
(dp2427
g3
g4
sg5
g27
sg7
g8
ssV3214881233
p2428
(dp2429
g3
g4
sg5
g6
sg7
g30
ssV1766004535
p2430
(dp2431
g3
g14
sg5
g15
sg7
g44
ssV1401616093
p2432
(dp2433
g3
g4
sg5
g103
sg7
g8
ssV1410150407
p2434
(dp2435
g3
g14
sg5
g6
sg7
g8
ssV2256255854
p2436
(dp2437
g3
g14
sg5
g15
sg7
g8
ssV1874090361
p2438
(dp2439
g3
g14
sg5
g6
sg7
g30
ssV1827202442
p2440
(dp2441
g3
g14
sg5
g11
sg7
g30
ssV2408102575
p2442
(dp2443
g3
g4
sg5
g15
sg7
g30
ssV1413214321
p2444
(dp2445
g3
g4
sg5
g20
sg7
g8
ssV1793330664
p2446
(dp2447
g3
g14
sg5
g6
sg7
g8
ssV1872343313
p2448
(dp2449
g3
g4
sg5
g41
sg7
g8
ssV2395606577
p2450
(dp2451
g3
g4
sg5
g41
sg7
g8
ssV1759034963
p2452
(dp2453
g3
g14
sg5
g11
sg7
g8
ssV1669105932
p2454
(dp2455
g3
g4
sg5
g11
sg7
g8
ssV1734117871
p2456
(dp2457
g3
g4
sg5
g15
sg7
g8
ssV2159088280
p2458
(dp2459
g3
g4
sg5
g6
sg7
g8
ssV2737963973
p2460
(dp2461
g3
g4
sg5
g15
sg7
g8
ssV3086919671
p2462
(dp2463
g3
g4
sg5
g20
sg7
g8
ssV2600664297
p2464
(dp2465
g3
g4
sg5
g6
sg7
g64
ssV1672728830
p2466
(dp2467
g3
g4
sg5
g15
sg7
g8
ssV1846054284
p2468
(dp2469
g3
g4
sg5
g11
sg7
g8
ssV1785958201
p2470
(dp2471
g3
g4
sg5
g11
sg7
g8
ssV2485579657
p2472
(dp2473
g3
g4
sg5
g15
sg7
g8
ssV1507062404
p2474
(dp2475
g3
g4
sg5
g6
sg7
g30
ssV1266913000
p2476
(dp2477
g3
g14
sg5
g61
sg7
g8
ssV2678269943
p2478
(dp2479
g3
g4
sg5
g15
sg7
g8
ssV1853447441
p2480
(dp2481
g3
g4
sg5
g11
sg7
g30
ssV1567571807
p2482
(dp2483
g3
g4
sg5
g6
sg7
g8
ssV1173091831
p2484
(dp2485
g3
g4
sg5
g20
sg7
g8
ssV1730797780
p2486
(dp2487
g3
g14
sg5
g11
sg7
g30
ssV2841127252
p2488
(dp2489
g3
g4
sg5
g27
sg7
g30
ssV1764408274
p2490
(dp2491
g3
g4
sg5
g11
sg7
g8
ssV3072370235
p2492
(dp2493
g3
g4
sg5
g61
sg7
g8
ssV1790176491
p2494
(dp2495
g3
g14
sg5
g6
sg7
g8
ssV2717877093
p2496
(dp2497
g3
g4
sg5
g15
sg7
g8
ss.