(dp0
V2670699760
p1
(dp2
S'gender'
p3
S'f'
p4
sS'location'
p5
V\u897f\u5357
p6
sS'year'
p7
S'1990+'
p8
ssV1619396022
p9
(dp10
g3
g4
sg5
V\u534e\u4e1c
p11
sg7
S'1980-1989'
p12
ssV1706776895
p13
(dp14
g3
S'm'
p15
sg5
V\u534e\u5357
p16
sg7
g12
ssV1855319517
p17
(dp18
g3
g15
sg5
g11
sg7
g12
ssV1880448490
p19
(dp20
g3
g15
sg5
V\u534e\u5317
p21
sg7
g12
ssV3206847373
p22
(dp23
g3
g15
sg5
V\u5883\u5916
p24
sg7
g8
ssV1645648351
p25
(dp26
g3
g4
sg5
g6
sg7
S''
p27
ssV2246375172
p28
(dp29
g3
g15
sg5
g16
sg7
g12
ssV1410016511
p30
(dp31
g3
g15
sg5
g24
sg7
S'1979-'
p32
ssV2205338177
p33
(dp34
g3
g4
sg5
g11
sg7
g12
ssV1423236984
p35
(dp36
g3
g4
sg5
g21
sg7
g8
ssV1782796481
p37
(dp38
g3
g15
sg5
g11
sg7
g12
ssV3128719942
p39
(dp40
g3
g4
sg5
g11
sg7
g12
ssV2459711325
p41
(dp42
g3
g15
sg5
g16
sg7
g8
ssV2510862543
p43
(dp44
g3
g15
sg5
g16
sg7
g12
ssV1871983194
p45
(dp46
g3
g15
sg5
g16
sg7
g12
ssV1181431895
p47
(dp48
g3
g15
sg5
g11
sg7
g12
ssV2627345571
p49
(dp50
g3
g15
sg5
g21
sg7
g12
ssV1073374664
p51
(dp52
g3
g15
sg5
g11
sg7
g12
ssV2384305011
p53
(dp54
g3
g15
sg5
g21
sg7
g12
ssV2262608590
p55
(dp56
g3
g15
sg5
g16
sg7
g12
ssV1790118144
p57
(dp58
g3
g4
sg5
V\u534e\u4e2d
p59
sg7
g12
ssV1082420940
p60
(dp61
g3
g15
sg5
g21
sg7
g32
ssV1342147282
p62
(dp63
g3
g15
sg5
g21
sg7
g12
ssV2256919917
p64
(dp65
g3
g4
sg5
g16
sg7
g12
ssV3164061791
p66
(dp67
g3
g15
sg5
g11
sg7
g32
ssV1731031795
p68
(dp69
g3
g4
sg5
g21
sg7
g12
ssV1180502585
p70
(dp71
g3
g4
sg5
g11
sg7
g27
ssV2132380980
p72
(dp73
g3
g15
sg5
g16
sg7
g32
ssV2181797375
p74
(dp75
g3
g15
sg5
g21
sg7
g8
ssV2845614373
p76
(dp77
g3
g4
sg5
g6
sg7
g12
ssV1923214905
p78
(dp79
g3
g4
sg5
g21
sg7
g12
ssV2137876737
p80
(dp81
g3
g4
sg5
g16
sg7
g12
ssV1762504152
p82
(dp83
g3
g15
sg5
g16
sg7
g12
ssV1164111482
p84
(dp85
g3
g15
sg5
g11
sg7
g12
ssV1401785002
p86
(dp87
g3
g15
sg5
g21
sg7
g8
ssV1086482047
p88
(dp89
g3
g4
sg5
g21
sg7
g12
ssV1868517934
p90
(dp91
g3
g15
sg5
g21
sg7
g32
ssV1740598922
p92
(dp93
g3
g15
sg5
g24
sg7
g12
ssV1768137164
p94
(dp95
g3
g15
sg5
g16
sg7
g8
ssV2216382331
p96
(dp97
g3
g15
sg5
g21
sg7
g12
ssV1889726467
p98
(dp99
g3
g4
sg5
g16
sg7
g12
ssV2274870443
p100
(dp101
g3
g15
sg5
g11
sg7
g8
ssV2564038235
p102
(dp103
g3
g15
sg5
g21
sg7
g8
ssV2928274092
p104
(dp105
g3
g15
sg5
g16
sg7
g12
ssV2349793513
p106
(dp107
g3
g4
sg5
g21
sg7
g12
ssV1750376753
p108
(dp109
g3
g15
sg5
g11
sg7
g32
ssV1911862417
p110
(dp111
g3
g15
sg5
g6
sg7
g8
ssV2700668292
p112
(dp113
g3
g15
sg5
g16
sg7
g8
ssV2537364095
p114
(dp115
g3
g15
sg5
g16
sg7
g32
ssV3066415743
p116
(dp117
g3
g15
sg5
g59
sg7
g12
ssV1369457251
p118
(dp119
g3
g15
sg5
g11
sg7
g32
ssV2099764285
p120
(dp121
g3
g15
sg5
g21
sg7
g8
ssV1655732820
p122
(dp123
g3
g15
sg5
g16
sg7
g12
ssV2802053524
p124
(dp125
g3
g15
sg5
g11
sg7
g8
ssV2662349711
p126
(dp127
g3
g15
sg5
g11
sg7
g8
ssV1459932801
p128
(dp129
g3
g15
sg5
g11
sg7
g32
ssV2835660065
p130
(dp131
g3
g15
sg5
g6
sg7
g8
ssV2675330351
p132
(dp133
g3
g15
sg5
g16
sg7
g27
ssV2297803581
p134
(dp135
g3
g15
sg5
g24
sg7
g8
ssV1843553850
p136
(dp137
g3
g15
sg5
g24
sg7
g12
ssV1769167525
p138
(dp139
g3
g15
sg5
g59
sg7
g8
ssV1820649290
p140
(dp141
g3
g4
sg5
g6
sg7
g12
ssV2111181653
p142
(dp143
g3
g15
sg5
g21
sg7
g8
ssV1877920917
p144
(dp145
g3
g15
sg5
g16
sg7
g12
ssV1768369801
p146
(dp147
g3
g4
sg5
g11
sg7
g12
ssV1927317025
p148
(dp149
g3
g4
sg5
g21
sg7
g12
ssV2710871370
p150
(dp151
g3
g15
sg5
g6
sg7
g8
ssV1256124482
p152
(dp153
g3
g15
sg5
g21
sg7
g8
ssV1785108597
p154
(dp155
g3
g15
sg5
g21
sg7
g8
ssV1869091607
p156
(dp157
g3
g4
sg5
g21
sg7
g12
ssV2107380817
p158
(dp159
g3
g15
sg5
g6
sg7
g8
ssV1682059491
p160
(dp161
g3
g15
sg5
g11
sg7
g32
ssV1429913582
p162
(dp163
g3
g15
sg5
g11
sg7
g12
ssV2609577162
p164
(dp165
g3
g15
sg5
g11
sg7
g12
ssV1846246675
p166
(dp167
g3
g15
sg5
g11
sg7
g8
ssV1701008581
p168
(dp169
g3
g15
sg5
g21
sg7
g8
ssV3155084540
p170
(dp171
g3
g15
sg5
g16
sg7
g8
ssV2305918423
p172
(dp173
g3
g4
sg5
g21
sg7
g12
ssV1216795565
p174
(dp175
g3
g4
sg5
g24
sg7
g12
ssV2376558805
p176
(dp177
g3
g4
sg5
g6
sg7
g8
ssV2507796045
p178
(dp179
g3
g15
sg5
g11
sg7
g12
ssV1336351400
p180
(dp181
g3
g15
sg5
g16
sg7
g32
ssV1695817525
p182
(dp183
g3
g15
sg5
g6
sg7
g8
ssV2890979751
p184
(dp185
g3
g15
sg5
g16
sg7
g12
ssV1849115272
p186
(dp187
g3
g15
sg5
g24
sg7
g32
ssV2296571643
p188
(dp189
g3
g4
sg5
g21
sg7
g8
ssV2368914063
p190
(dp191
g3
g15
sg5
g16
sg7
g8
ssV1414874342
p192
(dp193
g3
g15
sg5
g21
sg7
g12
ssV2511704410
p194
(dp195
g3
g4
sg5
g24
sg7
g32
ssV1551311961
p196
(dp197
g3
g15
sg5
g21
sg7
g12
ssV2050268993
p198
(dp199
g3
g15
sg5
g11
sg7
g12
ssV1391429917
p200
(dp201
g3
g4
sg5
g21
sg7
g8
ssV1567657033
p202
(dp203
g3
g15
sg5
g21
sg7
g8
ssV2701059532
p204
(dp205
g3
g4
sg5
g16
sg7
g12
ssV1279750675
p206
(dp207
g3
g15
sg5
g6
sg7
g8
ssV1869335227
p208
(dp209
g3
g15
sg5
g16
sg7
g12
ssV3136112385
p210
(dp211
g3
g15
sg5
g6
sg7
g12
ssV1706144641
p212
(dp213
g3
g15
sg5
g16
sg7
g12
ssV2282459260
p214
(dp215
g3
g4
sg5
g6
sg7
g8
ssV1907411770
p216
(dp217
g3
g4
sg5
g24
sg7
g32
ssV1513572131
p218
(dp219
g3
g15
sg5
g16
sg7
g12
ssV2948535201
p220
(dp221
g3
g15
sg5
g21
sg7
g12
ssV1882536614
p222
(dp223
g3
g15
sg5
g6
sg7
g12
ssV1526297793
p224
(dp225
g3
g4
sg5
g11
sg7
g12
ssV1882993815
p226
(dp227
g3
g15
sg5
g6
sg7
g32
ssV1350455380
p228
(dp229
g3
g15
sg5
g21
sg7
g32
ssV1854142525
p230
(dp231
g3
g15
sg5
g11
sg7
g12
ssV3079824341
p232
(dp233
g3
g15
sg5
g59
sg7
g12
ssV1311534325
p234
(dp235
g3
g4
sg5
g11
sg7
g12
ssV2276432117
p236
(dp237
g3
g15
sg5
g6
sg7
g12
ssV2338461283
p238
(dp239
g3
g15
sg5
g24
sg7
g12
ssV1784862801
p240
(dp241
g3
g15
sg5
g11
sg7
g27
ssV1829288844
p242
(dp243
g3
g15
sg5
g11
sg7
g12
ssV1821516832
p244
(dp245
g3
g15
sg5
g24
sg7
g8
ssV1259618275
p246
(dp247
g3
g15
sg5
g11
sg7
g8
ssV1757077381
p248
(dp249
g3
g4
sg5
g21
sg7
g12
ssV2624283101
p250
(dp251
g3
g15
sg5
g59
sg7
g32
ssV1904390557
p252
(dp253
g3
g15
sg5
g21
sg7
g27
ssV2743059347
p254
(dp255
g3
g4
sg5
g11
sg7
g12
ssV1358649320
p256
(dp257
g3
g15
sg5
g21
sg7
g27
ssV2797669124
p258
(dp259
g3
g15
sg5
g11
sg7
g8
ssV1961950242
p260
(dp261
g3
g15
sg5
g21
sg7
g32
ssV1791115641
p262
(dp263
g3
g4
sg5
g24
sg7
g12
ssV2231180301
p264
(dp265
g3
g15
sg5
g16
sg7
g12
ssV2661045443
p266
(dp267
g3
g15
sg5
g11
sg7
g12
ssV1402681787
p268
(dp269
g3
g15
sg5
g21
sg7
g32
ssV1254271303
p270
(dp271
g3
g15
sg5
g21
sg7
g12
ssV3271593641
p272
(dp273
g3
g15
sg5
g21
sg7
g12
ssV1739128605
p274
(dp275
g3
g15
sg5
g16
sg7
g32
ssV1875770121
p276
(dp277
g3
g15
sg5
g59
sg7
g8
ssV2266192447
p278
(dp279
g3
g4
sg5
g21
sg7
g12
ssV1950471321
p280
(dp281
g3
g15
sg5
g11
sg7
g8
ssV1857549511
p282
(dp283
g3
g15
sg5
g6
sg7
g12
ssV1892229353
p284
(dp285
g3
g15
sg5
g6
sg7
g12
ssV1909016513
p286
(dp287
g3
g15
sg5
g21
sg7
g12
ssV2815053851
p288
(dp289
g3
g4
sg5
g6
sg7
g8
ssV2535953562
p290
(dp291
g3
g15
sg5
g16
sg7
g12
ssV1400771093
p292
(dp293
g3
g15
sg5
g59
sg7
g32
ssV1850000380
p294
(dp295
g3
g15
sg5
g11
sg7
g32
ssV2894146075
p296
(dp297
g3
g15
sg5
g21
sg7
g12
ssV1807787447
p298
(dp299
g3
g15
sg5
g6
sg7
g8
ssV1622589630
p300
(dp301
g3
g15
sg5
g11
sg7
g12
ssV2178733493
p302
(dp303
g3
g15
sg5
g21
sg7
g12
ssV1453457135
p304
(dp305
g3
g15
sg5
g24
sg7
g32
ssV2659196643
p306
(dp307
g3
g4
sg5
g59
sg7
g8
ssV1180350117
p308
(dp309
g3
g15
sg5
g24
sg7
g12
ssV2384469307
p310
(dp311
g3
g15
sg5
g24
sg7
g32
ssV2769029983
p312
(dp313
g3
g4
sg5
g6
sg7
g8
ssV2659750053
p314
(dp315
g3
g15
sg5
g11
sg7
g8
ssV1790038634
p316
(dp317
g3
g15
sg5
g11
sg7
g12
ssV1737499791
p318
(dp319
g3
g15
sg5
g59
sg7
g27
ssV1258211390
p320
(dp321
g3
g15
sg5
g16
sg7
g12
ssV2766594152
p322
(dp323
g3
g15
sg5
g21
sg7
g8
ssV1668134532
p324
(dp325
g3
g15
sg5
g11
sg7
g8
ssV2583009800
p326
(dp327
g3
g4
sg5
g59
sg7
g8
ssV2285664970
p328
(dp329
g3
g4
sg5
g11
sg7
g12
ssV1948033613
p330
(dp331
g3
g4
sg5
g11
sg7
g12
ssV2718960911
p332
(dp333
g3
g4
sg5
g6
sg7
g8
ssV1649489460
p334
(dp335
g3
g4
sg5
g11
sg7
g12
ssV1716990407
p336
(dp337
g3
g4
sg5
g11
sg7
g32
ssV1872130685
p338
(dp339
g3
g15
sg5
g21
sg7
g32
ssV2307919703
p340
(dp341
g3
g4
sg5
g21
sg7
g12
ssV1283514072
p342
(dp343
g3
g15
sg5
g21
sg7
g12
ssV1870889384
p344
(dp345
g3
g15
sg5
g21
sg7
g8
ssV1222870324
p346
(dp347
g3
g15
sg5
g21
sg7
g12
ssV2672045501
p348
(dp349
g3
g15
sg5
g16
sg7
g12
ssV1973291605
p350
(dp351
g3
g15
sg5
g11
sg7
g12
ssV1826665131
p352
(dp353
g3
g4
sg5
g11
sg7
g12
ssV2266717031
p354
(dp355
g3
g15
sg5
g16
sg7
g12
ssV1815559532
p356
(dp357
g3
g4
sg5
g6
sg7
g8
ssV2667875431
p358
(dp359
g3
g15
sg5
g11
sg7
g12
ssV2691282791
p360
(dp361
g3
g4
sg5
g16
sg7
g27
ssV2188020015
p362
(dp363
g3
g15
sg5
g16
sg7
g12
ssV2588638300
p364
(dp365
g3
g15
sg5
g16
sg7
g12
ssV1081286043
p366
(dp367
g3
g15
sg5
g16
sg7
g12
ssV1811820305
p368
(dp369
g3
g15
sg5
g6
sg7
g8
ssV1949830645
p370
(dp371
g3
g4
sg5
g21
sg7
g8
ssV2854188982
p372
(dp373
g3
g4
sg5
g59
sg7
g12
ssV1670201175
p374
(dp375
g3
g15
sg5
g11
sg7
g12
ssV2804557451
p376
(dp377
g3
g4
sg5
g16
sg7
g8
ssV1911443683
p378
(dp379
g3
g4
sg5
g21
sg7
g8
ssV1860803650
p380
(dp381
g3
g4
sg5
g21
sg7
g12
ssV2200292590
p382
(dp383
g3
g4
sg5
g21
sg7
g12
ssV1735226874
p384
(dp385
g3
g15
sg5
g16
sg7
g12
ssV2365600394
p386
(dp387
g3
g15
sg5
g11
sg7
g12
ssV2685180230
p388
(dp389
g3
g15
sg5
g16
sg7
g12
ssV2949503903
p390
(dp391
g3
g15
sg5
g16
sg7
g8
ssV1876037943
p392
(dp393
g3
g4
sg5
g16
sg7
g8
ssV1611338545
p394
(dp395
g3
g15
sg5
g16
sg7
g8
ssV1878440040
p396
(dp397
g3
g15
sg5
g11
sg7
g32
ssV2906126395
p398
(dp399
g3
g4
sg5
g21
sg7
g12
ssV1782008280
p400
(dp401
g3
g4
sg5
g11
sg7
g12
ssV2279228045
p402
(dp403
g3
g15
sg5
g11
sg7
g12
ssV3229757700
p404
(dp405
g3
g15
sg5
g16
sg7
g12
ssV2551338023
p406
(dp407
g3
g15
sg5
g24
sg7
g12
ssV1800294004
p408
(dp409
g3
g4
sg5
g16
sg7
g12
ssV1001892665
p410
(dp411
g3
g15
sg5
g16
sg7
g8
ssV2812390521
p412
(dp413
g3
g4
sg5
g21
sg7
g8
ssV1560660355
p414
(dp415
g3
g4
sg5
g11
sg7
g12
ssV1799884251
p416
(dp417
g3
g4
sg5
g24
sg7
g32
ssV2612335761
p418
(dp419
g3
g15
sg5
g24
sg7
g12
ssV1878793743
p420
(dp421
g3
g4
sg5
g11
sg7
g8
ssV2649129201
p422
(dp423
g3
g15
sg5
g11
sg7
g12
ssV1624082274
p424
(dp425
g3
g15
sg5
g59
sg7
g12
ssV2044199527
p426
(dp427
g3
g15
sg5
g16
sg7
g8
ssV2076265341
p428
(dp429
g3
g4
sg5
g24
sg7
g12
ssV2180426925
p430
(dp431
g3
g15
sg5
g11
sg7
g12
ssV1535077593
p432
(dp433
g3
g15
sg5
g6
sg7
g12
ssV2217540607
p434
(dp435
g3
g15
sg5
g24
sg7
g8
ssV1972605164
p436
(dp437
g3
g15
sg5
g21
sg7
g8
ssV2413703793
p438
(dp439
g3
g15
sg5
g6
sg7
g27
ssV2729418627
p440
(dp441
g3
g15
sg5
g21
sg7
g8
ssV2301314580
p442
(dp443
g3
g15
sg5
g59
sg7
g12
ssV1366428145
p444
(dp445
g3
g15
sg5
g11
sg7
g12
ssV2297114364
p446
(dp447
g3
g15
sg5
g11
sg7
g12
ssV1993022825
p448
(dp449
g3
g15
sg5
g11
sg7
g32
ssV1771550825
p450
(dp451
g3
g15
sg5
g11
sg7
g12
ssV2495682195
p452
(dp453
g3
g4
sg5
g21
sg7
g8
ssV2389510393
p454
(dp455
g3
g15
sg5
g24
sg7
g8
ssV2843910674
p456
(dp457
g3
g15
sg5
g11
sg7
g8
ssV2406657010
p458
(dp459
g3
g15
sg5
g16
sg7
g8
ssV1572623734
p460
(dp461
g3
g4
sg5
g21
sg7
g8
ssV2516165743
p462
(dp463
g3
g15
sg5
g21
sg7
g32
ssV1460250771
p464
(dp465
g3
g15
sg5
g21
sg7
g12
ssV1904038511
p466
(dp467
g3
g15
sg5
g59
sg7
g8
ssV1773951174
p468
(dp469
g3
g15
sg5
g21
sg7
g27
ssV2784335977
p470
(dp471
g3
g15
sg5
g59
sg7
g8
ssV1481948243
p472
(dp473
g3
g15
sg5
g6
sg7
g32
ssV1663300912
p474
(dp475
g3
g15
sg5
g24
sg7
g12
ssV2953446684
p476
(dp477
g3
g4
sg5
g11
sg7
g8
ssV1865949691
p478
(dp479
g3
g15
sg5
g16
sg7
g12
ssV1404202485
p480
(dp481
g3
g15
sg5
g6
sg7
g12
ssV2728914857
p482
(dp483
g3
g15
sg5
g6
sg7
g27
ssV2756929747
p484
(dp485
g3
g15
sg5
g21
sg7
g32
ssV1109484895
p486
(dp487
g3
g15
sg5
g16
sg7
g32
ssV2514180551
p488
(dp489
g3
g4
sg5
g6
sg7
g8
ssV1569256345
p490
(dp491
g3
g15
sg5
g59
sg7
g12
ssV2950812610
p492
(dp493
g3
g15
sg5
g11
sg7
g12
ssV1888205693
p494
(dp495
g3
g15
sg5
g21
sg7
g8
ssV1342419151
p496
(dp497
g3
g15
sg5
g11
sg7
g32
ssV2315869661
p498
(dp499
g3
g15
sg5
g21
sg7
g8
ssV1700064781
p500
(dp501
g3
g15
sg5
g21
sg7
g12
ssV2204860062
p502
(dp503
g3
g15
sg5
g11
sg7
g12
ssV2837494161
p504
(dp505
g3
g4
sg5
g24
sg7
g12
ssV2111484112
p506
(dp507
g3
g15
sg5
g21
sg7
g12
ssV2129031064
p508
(dp509
g3
g15
sg5
g16
sg7
g8
ssV1605081383
p510
(dp511
g3
g15
sg5
g24
sg7
g12
ssV1866815023
p512
(dp513
g3
g15
sg5
g24
sg7
g27
ssV2393915900
p514
(dp515
g3
g15
sg5
g11
sg7
g8
ssV1029567183
p516
(dp517
g3
g15
sg5
g21
sg7
g12
ssV1775567130
p518
(dp519
g3
g15
sg5
g6
sg7
g12
ssV2129306131
p520
(dp521
g3
g15
sg5
g21
sg7
g12
ssV1405433097
p522
(dp523
g3
g15
sg5
g11
sg7
g32
ssV1689591471
p524
(dp525
g3
g15
sg5
g59
sg7
g12
ssV1857234890
p526
(dp527
g3
g15
sg5
g11
sg7
g12
ssV1408702461
p528
(dp529
g3
g15
sg5
g11
sg7
g12
ssV1795193272
p530
(dp531
g3
g15
sg5
g6
sg7
g12
ssV1826905190
p532
(dp533
g3
g4
sg5
g16
sg7
g8
ssV2267431360
p534
(dp535
g3
g4
sg5
g11
sg7
g27
ssV1407474453
p536
(dp537
g3
g15
sg5
g16
sg7
g32
ssV1134820513
p538
(dp539
g3
g4
sg5
g24
sg7
g32
ssV1806163710
p540
(dp541
g3
g4
sg5
g11
sg7
g12
ssV1561046121
p542
(dp543
g3
g15
sg5
g21
sg7
g12
ssV2937010802
p544
(dp545
g3
g15
sg5
g16
sg7
g8
ssV2111661731
p546
(dp547
g3
g15
sg5
g21
sg7
g8
ssV1015263685
p548
(dp549
g3
g15
sg5
g21
sg7
g32
ssV1816307954
p550
(dp551
g3
g15
sg5
g59
sg7
g8
ssV1914671373
p552
(dp553
g3
g4
sg5
g11
sg7
g12
ssV1505179125
p554
(dp555
g3
g4
sg5
g11
sg7
g12
ssV1370557100
p556
(dp557
g3
g15
sg5
g11
sg7
g12
ssV1824248113
p558
(dp559
g3
g15
sg5
g21
sg7
g12
ssV1772141970
p560
(dp561
g3
g15
sg5
g11
sg7
g12
ssV1900879241
p562
(dp563
g3
g15
sg5
g16
sg7
g12
ssV1268469180
p564
(dp565
g3
g4
sg5
g21
sg7
g12
ssV2196839725
p566
(dp567
g3
g15
sg5
g21
sg7
g12
ssV2067504207
p568
(dp569
g3
g15
sg5
g11
sg7
g12
ssV1612287434
p570
(dp571
g3
g15
sg5
g59
sg7
g12
ssV1887268220
p572
(dp573
g3
g4
sg5
g11
sg7
g8
ssV1784061974
p574
(dp575
g3
g15
sg5
g16
sg7
g8
ssV1963699563
p576
(dp577
g3
g15
sg5
g24
sg7
g12
ssV1973522630
p578
(dp579
g3
g15
sg5
g6
sg7
g8
ssV1567509020
p580
(dp581
g3
g4
sg5
g21
sg7
g32
ssV2654118001
p582
(dp583
g3
g15
sg5
g11
sg7
g12
ssV1421074181
p584
(dp585
g3
g4
sg5
g16
sg7
g12
ssV2707101851
p586
(dp587
g3
g15
sg5
g11
sg7
g8
ssV1242491005
p588
(dp589
g3
g15
sg5
g11
sg7
g12
ssV1633508920
p590
(dp591
g3
g15
sg5
g59
sg7
g12
ssV2143180245
p592
(dp593
g3
g15
sg5
g16
sg7
g8
ssV1935514580
p594
(dp595
g3
g4
sg5
g21
sg7
g12
ssV2253173032
p596
(dp597
g3
g15
sg5
g11
sg7
g12
ssV2824931453
p598
(dp599
g3
g15
sg5
g21
sg7
g8
ssV1880700695
p600
(dp601
g3
g15
sg5
g21
sg7
g12
ssV1807653990
p602
(dp603
g3
g15
sg5
g16
sg7
g12
ssV1212946692
p604
(dp605
g3
g15
sg5
g16
sg7
g12
ssV2357485157
p606
(dp607
g3
g15
sg5
g21
sg7
g12
ssV2917973407
p608
(dp609
g3
g4
sg5
g11
sg7
g8
ssV3213626021
p610
(dp611
g3
g15
sg5
g6
sg7
g12
ssV1304008612
p612
(dp613
g3
g4
sg5
g11
sg7
g8
ssV1651973355
p614
(dp615
g3
g15
sg5
g59
sg7
g32
ssV2243002475
p616
(dp617
g3
g15
sg5
g24
sg7
g8
ssV1434324483
p618
(dp619
g3
g15
sg5
g11
sg7
g12
ssV2349205824
p620
(dp621
g3
g15
sg5
g16
sg7
g32
ssV3174172605
p622
(dp623
g3
g4
sg5
g6
sg7
g8
ssV3224357922
p624
(dp625
g3
g15
sg5
g16
sg7
g12
ssV1082655795
p626
(dp627
g3
g15
sg5
g21
sg7
g12
ssV1167037354
p628
(dp629
g3
g4
sg5
g11
sg7
g12
ssV2136749667
p630
(dp631
g3
g15
sg5
g21
sg7
g12
ssV2266014712
p632
(dp633
g3
g15
sg5
g11
sg7
g12
ssV2715413601
p634
(dp635
g3
g15
sg5
g24
sg7
g8
ssV2608609420
p636
(dp637
g3
g15
sg5
g16
sg7
g8
ssV2259343132
p638
(dp639
g3
g15
sg5
g11
sg7
g12
ssV1048098007
p640
(dp641
g3
g15
sg5
g11
sg7
g32
ssV1221781763
p642
(dp643
g3
g15
sg5
g24
sg7
g12
ssV1904305252
p644
(dp645
g3
g15
sg5
g6
sg7
g32
ssV1904814771
p646
(dp647
g3
g15
sg5
g21
sg7
g12
ssV2762276245
p648
(dp649
g3
g15
sg5
g21
sg7
g12
ssV2659500371
p650
(dp651
g3
g15
sg5
g21
sg7
g8
ssV2322442152
p652
(dp653
g3
g4
sg5
g11
sg7
g12
ssV2385569543
p654
(dp655
g3
g15
sg5
g21
sg7
g8
ssV1808485297
p656
(dp657
g3
g15
sg5
g16
sg7
g12
ssV2260774397
p658
(dp659
g3
g15
sg5
g11
sg7
g12
ssV1585440861
p660
(dp661
g3
g15
sg5
g21
sg7
g12
ssV1797627874
p662
(dp663
g3
g15
sg5
g11
sg7
g12
ssV2199734863
p664
(dp665
g3
g15
sg5
g24
sg7
g12
ssV1760667707
p666
(dp667
g3
g15
sg5
g11
sg7
g8
ssV1234491327
p668
(dp669
g3
g15
sg5
g21
sg7
g12
ssV1897582007
p670
(dp671
g3
g4
sg5
g11
sg7
g8
ssV1692776767
p672
(dp673
g3
g15
sg5
g21
sg7
g32
ssV1592871341
p674
(dp675
g3
g15
sg5
g6
sg7
g12
ssV1755426127
p676
(dp677
g3
g15
sg5
g11
sg7
g12
ssV1934463567
p678
(dp679
g3
g15
sg5
g16
sg7
g12
ssV2672797953
p680
(dp681
g3
g15
sg5
g11
sg7
g8
ssV1673944117
p682
(dp683
g3
g15
sg5
g21
sg7
g12
ssV2364478010
p684
(dp685
g3
g15
sg5
g21
sg7
g8
ssV2179538061
p686
(dp687
g3
g15
sg5
g24
sg7
g12
ssV1774190893
p688
(dp689
g3
g15
sg5
g11
sg7
g12
ssV2402185823
p690
(dp691
g3
g15
sg5
g11
sg7
g32
ssV1653069764
p692
(dp693
g3
g15
sg5
g59
sg7
g32
ssV3034711345
p694
(dp695
g3
g15
sg5
g21
sg7
g8
ssV2536098340
p696
(dp697
g3
g4
sg5
g24
sg7
g8
ssV2554709357
p698
(dp699
g3
g15
sg5
g21
sg7
g32
ssV2512208257
p700
(dp701
g3
g15
sg5
g21
sg7
g8
ssV2887049881
p702
(dp703
g3
g15
sg5
g11
sg7
g12
ssV1616059977
p704
(dp705
g3
g15
sg5
g21
sg7
g12
ssV1574901384
p706
(dp707
g3
g15
sg5
g11
sg7
g12
ssV2721732723
p708
(dp709
g3
g15
sg5
g6
sg7
g8
ssV2552760570
p710
(dp711
g3
g4
sg5
g11
sg7
g32
ssV1925146627
p712
(dp713
g3
g15
sg5
g21
sg7
g12
ssV2206164465
p714
(dp715
g3
g4
sg5
g59
sg7
g12
ssV1790033941
p716
(dp717
g3
g15
sg5
g11
sg7
g12
ssV3026342787
p718
(dp719
g3
g15
sg5
g16
sg7
g8
ssV1820484135
p720
(dp721
g3
g4
sg5
g21
sg7
g12
ssV1260006365
p722
(dp723
g3
g4
sg5
g21
sg7
g12
ssV1950871960
p724
(dp725
g3
g15
sg5
g11
sg7
g12
ssV2571910710
p726
(dp727
g3
g15
sg5
g59
sg7
g12
ssV1798117135
p728
(dp729
g3
g15
sg5
g59
sg7
g12
ssV2646867943
p730
(dp731
g3
g15
sg5
g11
sg7
g12
ssV2574740464
p732
(dp733
g3
g4
sg5
g6
sg7
g12
ssV2797109895
p734
(dp735
g3
g15
sg5
g6
sg7
g8
ssV1773843102
p736
(dp737
g3
g15
sg5
g16
sg7
g32
ssV1320655327
p738
(dp739
g3
g4
sg5
g11
sg7
g27
ssV1894374581
p740
(dp741
g3
g4
sg5
g11
sg7
g12
ssV1871406923
p742
(dp743
g3
g4
sg5
g21
sg7
g8
ssV1756626457
p744
(dp745
g3
g15
sg5
g11
sg7
g8
ssV2775463701
p746
(dp747
g3
g15
sg5
g11
sg7
g12
ssV1593378423
p748
(dp749
g3
g4
sg5
g11
sg7
g8
ssV1590497077
p750
(dp751
g3
g15
sg5
g21
sg7
g12
ssV2808829835
p752
(dp753
g3
g15
sg5
g59
sg7
g8
ssV1967887737
p754
(dp755
g3
g15
sg5
g21
sg7
g12
ssV1750716655
p756
(dp757
g3
g15
sg5
g11
sg7
g12
ssV1429623741
p758
(dp759
g3
g15
sg5
g24
sg7
g32
ssV2663905674
p760
(dp761
g3
g4
sg5
g6
sg7
g8
ssV2034927202
p762
(dp763
g3
g15
sg5
g11
sg7
g8
ssV2880507220
p764
(dp765
g3
g4
sg5
g59
sg7
g12
ssV2170831601
p766
(dp767
g3
g15
sg5
g21
sg7
g8
ssV1080114825
p768
(dp769
g3
g15
sg5
g24
sg7
g12
ssV3167612943
p770
(dp771
g3
g15
sg5
g24
sg7
g27
ssV2399202663
p772
(dp773
g3
g4
sg5
g21
sg7
g12
ssV3128394350
p774
(dp775
g3
g4
sg5
g16
sg7
g8
ssV1724544161
p776
(dp777
g3
g15
sg5
g6
sg7
g12
ssV1660210445
p778
(dp779
g3
g15
sg5
g21
sg7
g12
ssV3161859491
p780
(dp781
g3
g15
sg5
g21
sg7
g8
ssV1744386610
p782
(dp783
g3
g15
sg5
g21
sg7
g12
ssV1673187344
p784
(dp785
g3
g4
sg5
g6
sg7
g8
ssV2673384233
p786
(dp787
g3
g15
sg5
g16
sg7
g12
ssV1870635365
p788
(dp789
g3
g15
sg5
g21
sg7
g27
ssV1662280663
p790
(dp791
g3
g15
sg5
g21
sg7
g12
ssV2730365161
p792
(dp793
g3
g4
sg5
g21
sg7
g12
ssV1651488551
p794
(dp795
g3
g15
sg5
g11
sg7
g12
ssV2796159840
p796
(dp797
g3
g15
sg5
g6
sg7
g12
ssV2649813313
p798
(dp799
g3
g15
sg5
g11
sg7
g12
ssV2207715463
p800
(dp801
g3
g15
sg5
g21
sg7
g12
ssV2774544673
p802
(dp803
g3
g15
sg5
g21
sg7
g12
ssV2481199652
p804
(dp805
g3
g4
sg5
g21
sg7
g8
ssV1486074134
p806
(dp807
g3
g15
sg5
g11
sg7
g12
ssV2272536082
p808
(dp809
g3
g15
sg5
g59
sg7
g12
ssV2916863225
p810
(dp811
g3
g4
sg5
g21
sg7
g12
ssV1850144891
p812
(dp813
g3
g15
sg5
g16
sg7
g12
ssV2568971000
p814
(dp815
g3
g15
sg5
g11
sg7
g12
ssV2150403197
p816
(dp817
g3
g15
sg5
g21
sg7
g12
ssV2245469471
p818
(dp819
g3
g15
sg5
g24
sg7
g8
ssV2421419745
p820
(dp821
g3
g4
sg5
g16
sg7
g8
ssV2646875691
p822
(dp823
g3
g15
sg5
g24
sg7
g12
ssV1404456230
p824
(dp825
g3
g15
sg5
g16
sg7
g12
ssV2246515967
p826
(dp827
g3
g15
sg5
g11
sg7
g8
ssV2713133091
p828
(dp829
g3
g15
sg5
g24
sg7
g12
ssV1118055480
p830
(dp831
g3
g4
sg5
g21
sg7
g12
ssV2537982900
p832
(dp833
g3
g4
sg5
g59
sg7
g12
ssV3097085287
p834
(dp835
g3
g15
sg5
g11
sg7
g12
ssV1449606915
p836
(dp837
g3
g15
sg5
g11
sg7
g32
ssV2575744294
p838
(dp839
g3
g15
sg5
g21
sg7
g12
ssV1401523087
p840
(dp841
g3
g15
sg5
g21
sg7
g12
ssV2730975234
p842
(dp843
g3
g15
sg5
g21
sg7
g27
ssV2205539963
p844
(dp845
g3
g15
sg5
g6
sg7
g8
ssV2311674261
p846
(dp847
g3
g15
sg5
g11
sg7
g12
ssV2874327040
p848
(dp849
g3
g4
sg5
g21
sg7
g8
ssV1752290457
p850
(dp851
g3
g4
sg5
g24
sg7
g27
ssV1736406563
p852
(dp853
g3
g15
sg5
g24
sg7
g12
ssV1937383811
p854
(dp855
g3
g15
sg5
g21
sg7
g8
ssV1655414147
p856
(dp857
g3
g15
sg5
g21
sg7
g12
ssV1820236595
p858
(dp859
g3
g4
sg5
g21
sg7
g12
ssV2651800493
p860
(dp861
g3
g15
sg5
g11
sg7
g12
ssV1019005280
p862
(dp863
g3
g15
sg5
g16
sg7
g12
ssV1886034342
p864
(dp865
g3
g15
sg5
g21
sg7
g12
ssV1804520341
p866
(dp867
g3
g15
sg5
g21
sg7
g27
ssV1752733360
p868
(dp869
g3
g15
sg5
g59
sg7
g27
ssV2296739275
p870
(dp871
g3
g15
sg5
g21
sg7
g8
ssV1843922833
p872
(dp873
g3
g15
sg5
g24
sg7
g8
ssV2204256991
p874
(dp875
g3
g4
sg5
g21
sg7
g8
ssV1409881495
p876
(dp877
g3
g15
sg5
g16
sg7
g12
ssV1095437187
p878
(dp879
g3
g15
sg5
g21
sg7
g32
ssV2559416394
p880
(dp881
g3
g15
sg5
g11
sg7
g32
ssV2304435725
p882
(dp883
g3
g15
sg5
g11
sg7
g12
ssV1065688531
p884
(dp885
g3
g15
sg5
g11
sg7
g12
ssV2023594013
p886
(dp887
g3
g15
sg5
g21
sg7
g12
ssV2775508144
p888
(dp889
g3
g15
sg5
g11
sg7
g12
ssV1424276064
p890
(dp891
g3
g15
sg5
g11
sg7
g12
ssV2679186413
p892
(dp893
g3
g15
sg5
g24
sg7
g8
ssV2687465613
p894
(dp895
g3
g15
sg5
g11
sg7
g8
ssV1802948731
p896
(dp897
g3
g15
sg5
g11
sg7
g12
ssV1557967392
p898
(dp899
g3
g15
sg5
g21
sg7
g12
ssV2509960752
p900
(dp901
g3
g4
sg5
g11
sg7
g12
ssV1943505472
p902
(dp903
g3
g15
sg5
g24
sg7
g8
ssV2470248470
p904
(dp905
g3
g15
sg5
g16
sg7
g32
ssV2044888381
p906
(dp907
g3
g4
sg5
g21
sg7
g12
ssV2175545804
p908
(dp909
g3
g15
sg5
g11
sg7
g32
ssV1646471105
p910
(dp911
g3
g15
sg5
g11
sg7
g32
ssV1785587103
p912
(dp913
g3
g15
sg5
g59
sg7
g12
ssV1797199785
p914
(dp915
g3
g4
sg5
g24
sg7
g12
ssV2836264830
p916
(dp917
g3
g15
sg5
g16
sg7
g8
ssV1717632821
p918
(dp919
g3
g15
sg5
g21
sg7
g32
ssV1659428667
p920
(dp921
g3
g4
sg5
g59
sg7
g8
ssV2218057087
p922
(dp923
g3
g15
sg5
g16
sg7
g12
ssV2168566477
p924
(dp925
g3
g15
sg5
g21
sg7
g12
ssV2533956354
p926
(dp927
g3
g15
sg5
g59
sg7
g12
ssV1400098041
p928
(dp929
g3
g15
sg5
g16
sg7
g32
ssV1903728693
p930
(dp931
g3
g15
sg5
g59
sg7
g8
ssV2942593560
p932
(dp933
g3
g4
sg5
g24
sg7
g8
ssV2207933493
p934
(dp935
g3
g4
sg5
g21
sg7
g12
ssV1683667735
p936
(dp937
g3
g4
sg5
g6
sg7
g8
ssV2628035477
p938
(dp939
g3
g15
sg5
g11
sg7
g12
ssV3157572164
p940
(dp941
g3
g4
sg5
g24
sg7
g12
ssV2210375590
p942
(dp943
g3
g15
sg5
g24
sg7
g8
ssV1946409491
p944
(dp945
g3
g15
sg5
g16
sg7
g8
ssV1772111777
p946
(dp947
g3
g4
sg5
g11
sg7
g12
ssV1843716802
p948
(dp949
g3
g15
sg5
g11
sg7
g32
ssV2430931812
p950
(dp951
g3
g15
sg5
g24
sg7
g27
ssV1233062934
p952
(dp953
g3
g15
sg5
g16
sg7
g12
ssV2653820573
p954
(dp955
g3
g15
sg5
g11
sg7
g12
ssV2692287963
p956
(dp957
g3
g4
sg5
g21
sg7
g12
ssV1026095792
p958
(dp959
g3
g15
sg5
g11
sg7
g32
ssV2387159551
p960
(dp961
g3
g15
sg5
g11
sg7
g12
ssV2495734205
p962
(dp963
g3
g4
sg5
g21
sg7
g12
ssV1028859911
p964
(dp965
g3
g15
sg5
g11
sg7
g32
ssV2078548831
p966
(dp967
g3
g15
sg5
g21
sg7
g12
ssV2514531174
p968
(dp969
g3
g15
sg5
g16
sg7
g8
ssV1792016624
p970
(dp971
g3
g15
sg5
g16
sg7
g8
ssV1752852412
p972
(dp973
g3
g4
sg5
g11
sg7
g12
ssV1066932501
p974
(dp975
g3
g15
sg5
g11
sg7
g12
ssV1891915553
p976
(dp977
g3
g4
sg5
g21
sg7
g12
ssV2474132495
p978
(dp979
g3
g15
sg5
g21
sg7
g12
ssV2657751393
p980
(dp981
g3
g15
sg5
g16
sg7
g8
ssV1897650370
p982
(dp983
g3
g15
sg5
g11
sg7
g12
ssV2980153113
p984
(dp985
g3
g15
sg5
g21
sg7
g8
ssV1860987250
p986
(dp987
g3
g15
sg5
g11
sg7
g32
ssV2329669855
p988
(dp989
g3
g15
sg5
g16
sg7
g12
ssV1879087757
p990
(dp991
g3
g4
sg5
g21
sg7
g12
ssV1704625624
p992
(dp993
g3
g15
sg5
g11
sg7
g12
ssV1744381441
p994
(dp995
g3
g15
sg5
g16
sg7
g12
ssV1832899381
p996
(dp997
g3
g4
sg5
g21
sg7
g12
ssV2389228500
p998
(dp999
g3
g15
sg5
g59
sg7
g32
ssV2342095465
p1000
(dp1001
g3
g15
sg5
g21
sg7
g12
ssV2748509940
p1002
(dp1003
g3
g15
sg5
g6
sg7
g12
ssV1799512957
p1004
(dp1005
g3
g15
sg5
g21
sg7
g32
ssV1088886173
p1006
(dp1007
g3
g15
sg5
g21
sg7
g32
ssV1745330403
p1008
(dp1009
g3
g4
sg5
g6
sg7
g12
ssV2498081120
p1010
(dp1011
g3
g15
sg5
g24
sg7
g32
ssV2132934821
p1012
(dp1013
g3
g4
sg5
g11
sg7
g8
ssV1801233885
p1014
(dp1015
g3
g15
sg5
g6
sg7
g8
ssV1605624980
p1016
(dp1017
g3
g15
sg5
g11
sg7
g12
ssV2469037041
p1018
(dp1019
g3
g15
sg5
g11
sg7
g12
ssV2674550855
p1020
(dp1021
g3
g15
sg5
g24
sg7
g12
ssV2683110630
p1022
(dp1023
g3
g15
sg5
g21
sg7
g12
ssV1891247401
p1024
(dp1025
g3
g15
sg5
g11
sg7
g12
ssV1960665785
p1026
(dp1027
g3
g15
sg5
g11
sg7
g12
ssV1851396492
p1028
(dp1029
g3
g15
sg5
g24
sg7
g12
ssV1914623354
p1030
(dp1031
g3
g15
sg5
g11
sg7
g8
ssV2270865927
p1032
(dp1033
g3
g15
sg5
g16
sg7
g8
ssV1227161661
p1034
(dp1035
g3
g15
sg5
g21
sg7
g12
ssV3119956507
p1036
(dp1037
g3
g15
sg5
g24
sg7
g12
ssV2498753683
p1038
(dp1039
g3
g4
sg5
g21
sg7
g12
ssV1590802710
p1040
(dp1041
g3
g4
sg5
g21
sg7
g12
ssV1436900913
p1042
(dp1043
g3
g15
sg5
g11
sg7
g32
ssV1550899934
p1044
(dp1045
g3
g15
sg5
g11
sg7
g12
ssV2000394201
p1046
(dp1047
g3
g15
sg5
g16
sg7
g12
ssV2365920504
p1048
(dp1049
g3
g15
sg5
g21
sg7
g12
ssV2569678470
p1050
(dp1051
g3
g15
sg5
g11
sg7
g8
ssV1304289710
p1052
(dp1053
g3
g15
sg5
g11
sg7
g12
ssV1713092171
p1054
(dp1055
g3
g15
sg5
g11
sg7
g32
ssV1842726523
p1056
(dp1057
g3
g15
sg5
g24
sg7
g12
ssV2610104953
p1058
(dp1059
g3
g15
sg5
g59
sg7
g12
ssV1789005393
p1060
(dp1061
g3
g15
sg5
g21
sg7
g8
ssV2785613607
p1062
(dp1063
g3
g15
sg5
g24
sg7
g12
ssV2403191563
p1064
(dp1065
g3
g4
sg5
g11
sg7
g12
ssV2479928974
p1066
(dp1067
g3
g15
sg5
g59
sg7
g8
ssV1784018553
p1068
(dp1069
g3
g4
sg5
g6
sg7
g12
ssV1973014840
p1070
(dp1071
g3
g15
sg5
g6
sg7
g8
ssV1213059394
p1072
(dp1073
g3
g15
sg5
g16
sg7
g12
ssV2315856221
p1074
(dp1075
g3
g15
sg5
g21
sg7
g8
ssV2276936790
p1076
(dp1077
g3
g4
sg5
g11
sg7
g12
ssV2352007324
p1078
(dp1079
g3
g4
sg5
g59
sg7
g12
ssV1629527643
p1080
(dp1081
g3
g4
sg5
g21
sg7
g12
ssV2321552464
p1082
(dp1083
g3
g4
sg5
g11
sg7
g12
ssV2108129674
p1084
(dp1085
g3
g15
sg5
g6
sg7
g8
ssV3048327977
p1086
(dp1087
g3
g15
sg5
g11
sg7
g12
ssV1862475864
p1088
(dp1089
g3
g4
sg5
g11
sg7
g12
ssV2341976130
p1090
(dp1091
g3
g15
sg5
g6
sg7
g27
ssV2105814823
p1092
(dp1093
g3
g4
sg5
g21
sg7
g12
ssV1800519605
p1094
(dp1095
g3
g15
sg5
g21
sg7
g12
ssV1169098837
p1096
(dp1097
g3
g4
sg5
g11
sg7
g8
ssV1136170060
p1098
(dp1099
g3
g15
sg5
g24
sg7
g12
ssV3326228160
p1100
(dp1101
g3
g15
sg5
g21
sg7
g8
ssV1764080752
p1102
(dp1103
g3
g15
sg5
g11
sg7
g12
ssV2095465651
p1104
(dp1105
g3
g15
sg5
g24
sg7
g8
ssV1493010220
p1106
(dp1107
g3
g15
sg5
g11
sg7
g32
ssV2402424174
p1108
(dp1109
g3
g15
sg5
g16
sg7
g12
ssV2265428800
p1110
(dp1111
g3
g15
sg5
g11
sg7
g32
ssV1967671357
p1112
(dp1113
g3
g15
sg5
g6
sg7
g8
ssV1364701794
p1114
(dp1115
g3
g15
sg5
g59
sg7
g27
ssV2097517903
p1116
(dp1117
g3
g15
sg5
g24
sg7
g32
ssV1593031370
p1118
(dp1119
g3
g4
sg5
g16
sg7
g12
ssV1430378363
p1120
(dp1121
g3
g15
sg5
g11
sg7
g32
ssV1210848117
p1122
(dp1123
g3
g15
sg5
g21
sg7
g12
ssV1947027313
p1124
(dp1125
g3
g15
sg5
g24
sg7
g8
ssV2755816213
p1126
(dp1127
g3
g4
sg5
g16
sg7
g8
ssV2535483060
p1128
(dp1129
g3
g15
sg5
g6
sg7
g12
ssV1175975417
p1130
(dp1131
g3
g4
sg5
g6
sg7
g12
ssV2790939911
p1132
(dp1133
g3
g15
sg5
g21
sg7
g32
ssV1700614303
p1134
(dp1135
g3
g15
sg5
g16
sg7
g12
ssV2511741151
p1136
(dp1137
g3
g15
sg5
g21
sg7
g12
ssV1743412267
p1138
(dp1139
g3
g15
sg5
g21
sg7
g12
ssV2503108623
p1140
(dp1141
g3
g4
sg5
g21
sg7
g8
ssV2203523972
p1142
(dp1143
g3
g15
sg5
g11
sg7
g12
ssV2330267567
p1144
(dp1145
g3
g15
sg5
g21
sg7
g32
ssV2307885497
p1146
(dp1147
g3
g15
sg5
g21
sg7
g12
ssV2362724291
p1148
(dp1149
g3
g15
sg5
g24
sg7
g12
ssV1857041743
p1150
(dp1151
g3
g4
sg5
g11
sg7
g8
ssV1534678555
p1152
(dp1153
g3
g15
sg5
g59
sg7
g8
ssV1695433181
p1154
(dp1155
g3
g15
sg5
g59
sg7
g12
ssV1828420187
p1156
(dp1157
g3
g15
sg5
g24
sg7
g8
ssV2549565421
p1158
(dp1159
g3
g15
sg5
g16
sg7
g12
ssV1925151324
p1160
(dp1161
g3
g15
sg5
g11
sg7
g32
ssV2425601050
p1162
(dp1163
g3
g15
sg5
g6
sg7
g8
ssV2506153190
p1164
(dp1165
g3
g15
sg5
g11
sg7
g12
ssV3055965743
p1166
(dp1167
g3
g15
sg5
g11
sg7
g8
ssV1871754191
p1168
(dp1169
g3
g15
sg5
g21
sg7
g12
ssV1763363811
p1170
(dp1171
g3
g15
sg5
g21
sg7
g12
ssV2448626895
p1172
(dp1173
g3
g4
sg5
g21
sg7
g8
ssV1846218985
p1174
(dp1175
g3
g15
sg5
g16
sg7
g12
ssV2785823930
p1176
(dp1177
g3
g15
sg5
g6
sg7
g32
ssV1146484450
p1178
(dp1179
g3
g4
sg5
g21
sg7
g12
ssV1149747961
p1180
(dp1181
g3
g4
sg5
g11
sg7
g12
ssV2645184491
p1182
(dp1183
g3
g15
sg5
g6
sg7
g12
ssV36407257
p1184
(dp1185
g3
g15
sg5
g59
sg7
g12
ssV1365101213
p1186
(dp1187
g3
g15
sg5
g21
sg7
g12
ssV2390109473
p1188
(dp1189
g3
g15
sg5
g24
sg7
g12
ssV2473387097
p1190
(dp1191
g3
g4
sg5
g24
sg7
g8
ssV3179054941
p1192
(dp1193
g3
g4
sg5
g16
sg7
g8
ssV2689914600
p1194
(dp1195
g3
g15
sg5
g16
sg7
g12
ssV1044975222
p1196
(dp1197
g3
g15
sg5
g24
sg7
g12
ssV1450412282
p1198
(dp1199
g3
g15
sg5
g6
sg7
g12
ssV1580128530
p1200
(dp1201
g3
g15
sg5
g11
sg7
g12
ssV1309029131
p1202
(dp1203
g3
g4
sg5
g11
sg7
g12
ssV1596636453
p1204
(dp1205
g3
g4
sg5
g11
sg7
g8
ssV2464330850
p1206
(dp1207
g3
g15
sg5
g11
sg7
g12
ssV1268934587
p1208
(dp1209
g3
g15
sg5
g11
sg7
g32
ssV1569185307
p1210
(dp1211
g3
g15
sg5
g21
sg7
g12
ssV1062187237
p1212
(dp1213
g3
g15
sg5
g21
sg7
g12
ssV2078579195
p1214
(dp1215
g3
g15
sg5
g59
sg7
g12
ssV2466258235
p1216
(dp1217
g3
g4
sg5
g21
sg7
g12
ssV1364805843
p1218
(dp1219
g3
g15
sg5
g11
sg7
g32
ssV1825381655
p1220
(dp1221
g3
g4
sg5
g16
sg7
g8
ssV2232523170
p1222
(dp1223
g3
g15
sg5
g16
sg7
g8
ssV3035813681
p1224
(dp1225
g3
g15
sg5
g6
sg7
g8
ssV2607707213
p1226
(dp1227
g3
g15
sg5
g11
sg7
g12
ssV1916042452
p1228
(dp1229
g3
g4
sg5
g16
sg7
g12
ssV2257029027
p1230
(dp1231
g3
g15
sg5
g16
sg7
g32
ssV2056071057
p1232
(dp1233
g3
g15
sg5
g6
sg7
g12
ssV1791444517
p1234
(dp1235
g3
g15
sg5
g21
sg7
g12
ssV1884495395
p1236
(dp1237
g3
g15
sg5
g11
sg7
g12
ssV2312636217
p1238
(dp1239
g3
g15
sg5
g24
sg7
g12
ssV2218616427
p1240
(dp1241
g3
g15
sg5
g11
sg7
g12
ssV1154126064
p1242
(dp1243
g3
g15
sg5
g6
sg7
g8
ssV2623980461
p1244
(dp1245
g3
g15
sg5
g21
sg7
g12
ssV1763266503
p1246
(dp1247
g3
g15
sg5
g21
sg7
g8
ssV2089771773
p1248
(dp1249
g3
g15
sg5
g21
sg7
g8
ssV2862246822
p1250
(dp1251
g3
g4
sg5
g16
sg7
g8
ssV2627584383
p1252
(dp1253
g3
g15
sg5
g16
sg7
g12
ssV2017344461
p1254
(dp1255
g3
g15
sg5
g21
sg7
g27
ssV1423034570
p1256
(dp1257
g3
g15
sg5
g21
sg7
g12
ssV2657063365
p1258
(dp1259
g3
g15
sg5
g21
sg7
g12
ssV1714865565
p1260
(dp1261
g3
g4
sg5
g11
sg7
g12
ssV1875148707
p1262
(dp1263
g3
g4
sg5
g11
sg7
g12
ssV1692258297
p1264
(dp1265
g3
g15
sg5
g21
sg7
g12
ssV2417203125
p1266
(dp1267
g3
g15
sg5
g24
sg7
g12
ssV1614402044
p1268
(dp1269
g3
g15
sg5
g11
sg7
g12
ssV1561900137
p1270
(dp1271
g3
g15
sg5
g11
sg7
g12
ssV2383970027
p1272
(dp1273
g3
g15
sg5
g16
sg7
g12
ssV2427050891
p1274
(dp1275
g3
g4
sg5
g21
sg7
g12
ssV2439750825
p1276
(dp1277
g3
g4
sg5
g16
sg7
g8
ssV1763496702
p1278
(dp1279
g3
g15
sg5
g16
sg7
g12
ssV1044789120
p1280
(dp1281
g3
g15
sg5
g11
sg7
g32
ssV2354090415
p1282
(dp1283
g3
g15
sg5
g11
sg7
g12
ssV3025804590
p1284
(dp1285
g3
g4
sg5
g21
sg7
g32
ssV1726344282
p1286
(dp1287
g3
g4
sg5
g24
sg7
g12
ssV2543873633
p1288
(dp1289
g3
g4
sg5
g6
sg7
g12
ssV1764881420
p1290
(dp1291
g3
g15
sg5
g11
sg7
g12
ssV1301117945
p1292
(dp1293
g3
g4
sg5
g21
sg7
g12
ssV2403308005
p1294
(dp1295
g3
g15
sg5
g11
sg7
g8
ssV1731170451
p1296
(dp1297
g3
g15
sg5
g16
sg7
g12
ssV2619846483
p1298
(dp1299
g3
g15
sg5
g6
sg7
g12
ssV2958870623
p1300
(dp1301
g3
g15
sg5
g21
sg7
g32
ssV1199256374
p1302
(dp1303
g3
g15
sg5
g11
sg7
g32
ssV1781880382
p1304
(dp1305
g3
g4
sg5
g11
sg7
g27
ssV2294953760
p1306
(dp1307
g3
g4
sg5
g21
sg7
g12
ssV1010554831
p1308
(dp1309
g3
g15
sg5
g16
sg7
g32
ssV2387418905
p1310
(dp1311
g3
g15
sg5
g11
sg7
g32
ssV1909699087
p1312
(dp1313
g3
g4
sg5
g24
sg7
g12
ssV1658591610
p1314
(dp1315
g3
g15
sg5
g24
sg7
g12
ssV2458572521
p1316
(dp1317
g3
g15
sg5
g16
sg7
g8
ssV2818723755
p1318
(dp1319
g3
g15
sg5
g24
sg7
g12
ssV1891743844
p1320
(dp1321
g3
g15
sg5
g21
sg7
g12
ssV1704281311
p1322
(dp1323
g3
g15
sg5
g16
sg7
g8
ssV1406188225
p1324
(dp1325
g3
g15
sg5
g11
sg7
g32
ssV2805382354
p1326
(dp1327
g3
g15
sg5
g11
sg7
g8
ssV2709086545
p1328
(dp1329
g3
g15
sg5
g21
sg7
g12
ssV1690401877
p1330
(dp1331
g3
g4
sg5
g21
sg7
g32
ssV1046207772
p1332
(dp1333
g3
g15
sg5
g16
sg7
g12
ssV1785976792
p1334
(dp1335
g3
g15
sg5
g24
sg7
g27
ssV1238040702
p1336
(dp1337
g3
g15
sg5
g11
sg7
g32
ssV1827147222
p1338
(dp1339
g3
g15
sg5
g24
sg7
g8
ssV2468328091
p1340
(dp1341
g3
g15
sg5
g21
sg7
g32
ssV2390705023
p1342
(dp1343
g3
g15
sg5
g6
sg7
g12
ssV3058571533
p1344
(dp1345
g3
g15
sg5
g21
sg7
g12
ssV2552029717
p1346
(dp1347
g3
g4
sg5
g21
sg7
g12
ssV2532683722
p1348
(dp1349
g3
g15
sg5
g11
sg7
g12
ssV3149831080
p1350
(dp1351
g3
g4
sg5
g11
sg7
g32
ssV2625997121
p1352
(dp1353
g3
g15
sg5
g11
sg7
g8
ssV2275533953
p1354
(dp1355
g3
g4
sg5
g11
sg7
g8
ssV1656282495
p1356
(dp1357
g3
g4
sg5
g16
sg7
g12
ssV1917435964
p1358
(dp1359
g3
g15
sg5
g11
sg7
g32
ssV3227714251
p1360
(dp1361
g3
g15
sg5
g21
sg7
g32
ssV3257411590
p1362
(dp1363
g3
g15
sg5
g21
sg7
g8
ssV1784030403
p1364
(dp1365
g3
g15
sg5
g16
sg7
g12
ssV1739146054
p1366
(dp1367
g3
g15
sg5
g16
sg7
g12
ssV1675246960
p1368
(dp1369
g3
g15
sg5
g6
sg7
g8
ssV2308722964
p1370
(dp1371
g3
g15
sg5
g16
sg7
g8
ssV1557895317
p1372
(dp1373
g3
g15
sg5
g16
sg7
g12
ssV1682460452
p1374
(dp1375
g3
g15
sg5
g21
sg7
g12
ssV2481315687
p1376
(dp1377
g3
g15
sg5
g59
sg7
g12
ssV2640716583
p1378
(dp1379
g3
g15
sg5
g59
sg7
g32
ssV1025063207
p1380
(dp1381
g3
g15
sg5
g11
sg7
g32
ssV2675142680
p1382
(dp1383
g3
g15
sg5
g16
sg7
g8
ssV85881888
p1384
(dp1385
g3
g15
sg5
g24
sg7
g12
ssV1752233173
p1386
(dp1387
g3
g4
sg5
g11
sg7
g12
ssV2734091603
p1388
(dp1389
g3
g15
sg5
g59
sg7
g8
ssV2494987704
p1390
(dp1391
g3
g15
sg5
g11
sg7
g12
ssV1973512993
p1392
(dp1393
g3
g15
sg5
g21
sg7
g8
ssV2506218074
p1394
(dp1395
g3
g4
sg5
g16
sg7
g8
ssV1758661611
p1396
(dp1397
g3
g4
sg5
g21
sg7
g8
ssV1746852880
p1398
(dp1399
g3
g15
sg5
g11
sg7
g12
ssV2638910501
p1400
(dp1401
g3
g15
sg5
g24
sg7
g8
ssV1767371980
p1402
(dp1403
g3
g4
sg5
g16
sg7
g8
ssV2320811580
p1404
(dp1405
g3
g15
sg5
g21
sg7
g12
ssV1298970841
p1406
(dp1407
g3
g15
sg5
g16
sg7
g12
ssV1831298060
p1408
(dp1409
g3
g15
sg5
g11
sg7
g8
ssV2432310462
p1410
(dp1411
g3
g15
sg5
g59
sg7
g12
ssV2623574883
p1412
(dp1413
g3
g15
sg5
g6
sg7
g12
ssV2234021232
p1414
(dp1415
g3
g15
sg5
g16
sg7
g8
ssV1678907992
p1416
(dp1417
g3
g15
sg5
g6
sg7
g27
ssV3172058193
p1418
(dp1419
g3
g15
sg5
g16
sg7
g12
ssV1084506095
p1420
(dp1421
g3
g15
sg5
g6
sg7
g12
ssV3204864835
p1422
(dp1423
g3
g15
sg5
g21
sg7
g12
ssV2219067353
p1424
(dp1425
g3
g15
sg5
g21
sg7
g12
ssV1828697902
p1426
(dp1427
g3
g15
sg5
g6
sg7
g12
ssV2619690422
p1428
(dp1429
g3
g15
sg5
g11
sg7
g12
ssV1259167387
p1430
(dp1431
g3
g15
sg5
g11
sg7
g32
ssV3151326384
p1432
(dp1433
g3
g4
sg5
g11
sg7
g8
ssV1749053427
p1434
(dp1435
g3
g15
sg5
g16
sg7
g8
ssV2425164107
p1436
(dp1437
g3
g15
sg5
g24
sg7
g32
ssV2092347012
p1438
(dp1439
g3
g15
sg5
g24
sg7
g12
ssV1802472897
p1440
(dp1441
g3
g15
sg5
g21
sg7
g12
ssV2694884904
p1442
(dp1443
g3
g15
sg5
g16
sg7
g8
ssV1443204235
p1444
(dp1445
g3
g15
sg5
g21
sg7
g12
ssV1240974840
p1446
(dp1447
g3
g15
sg5
g6
sg7
g12
ssV2844198345
p1448
(dp1449
g3
g4
sg5
g59
sg7
g8
ssV1789444791
p1450
(dp1451
g3
g4
sg5
g59
sg7
g8
ssV2213944521
p1452
(dp1453
g3
g15
sg5
g21
sg7
g12
ssV3095141557
p1454
(dp1455
g3
g15
sg5
g24
sg7
g8
ssV1972433407
p1456
(dp1457
g3
g4
sg5
g24
sg7
g8
ssV2480598637
p1458
(dp1459
g3
g15
sg5
g21
sg7
g8
ssV2308003093
p1460
(dp1461
g3
g4
sg5
g11
sg7
g12
ssV2230527324
p1462
(dp1463
g3
g15
sg5
g24
sg7
g32
ssV3098170705
p1464
(dp1465
g3
g15
sg5
g59
sg7
g8
ssV2657448531
p1466
(dp1467
g3
g15
sg5
g6
sg7
g12
ssV1740311633
p1468
(dp1469
g3
g15
sg5
g24
sg7
g8
ssV2369014062
p1470
(dp1471
g3
g15
sg5
g6
sg7
g12
ssV1915584425
p1472
(dp1473
g3
g15
sg5
g11
sg7
g12
ssV2612653585
p1474
(dp1475
g3
g15
sg5
g21
sg7
g8
ssV2174907263
p1476
(dp1477
g3
g15
sg5
g59
sg7
g12
ssV1819635277
p1478
(dp1479
g3
g4
sg5
g21
sg7
g27
ssV1685341002
p1480
(dp1481
g3
g15
sg5
g21
sg7
g12
ssV1164940481
p1482
(dp1483
g3
g15
sg5
g6
sg7
g12
ssV1890949337
p1484
(dp1485
g3
g15
sg5
g11
sg7
g12
ssV1887327501
p1486
(dp1487
g3
g15
sg5
g59
sg7
g8
ssV2682210294
p1488
(dp1489
g3
g15
sg5
g11
sg7
g12
ssV2236409380
p1490
(dp1491
g3
g15
sg5
g59
sg7
g8
ssV1971409513
p1492
(dp1493
g3
g15
sg5
g16
sg7
g12
ssV1421405587
p1494
(dp1495
g3
g15
sg5
g11
sg7
g32
ssV2496553681
p1496
(dp1497
g3
g15
sg5
g11
sg7
g8
ssV2718733481
p1498
(dp1499
g3
g4
sg5
g21
sg7
g27
ssV1361696035
p1500
(dp1501
g3
g4
sg5
g11
sg7
g12
ssV1928671575
p1502
(dp1503
g3
g15
sg5
g21
sg7
g12
ssV1837762923
p1504
(dp1505
g3
g15
sg5
g6
sg7
g12
ssV2709303095
p1506
(dp1507
g3
g15
sg5
g11
sg7
g12
ssV1194080941
p1508
(dp1509
g3
g15
sg5
g11
sg7
g12
ssV1409918880
p1510
(dp1511
g3
g15
sg5
g21
sg7
g32
ssV2211353587
p1512
(dp1513
g3
g15
sg5
g11
sg7
g12
ssV1669200370
p1514
(dp1515
g3
g4
sg5
g21
sg7
g12
ssV2445334671
p1516
(dp1517
g3
g4
sg5
g6
sg7
g8
ssV2189696744
p1518
(dp1519
g3
g4
sg5
g11
sg7
g8
ssV1752148461
p1520
(dp1521
g3
g15
sg5
g24
sg7
g12
ssV1978099591
p1522
(dp1523
g3
g15
sg5
g11
sg7
g8
ssV2263255282
p1524
(dp1525
g3
g15
sg5
g11
sg7
g32
ssV2627791984
p1526
(dp1527
g3
g4
sg5
g11
sg7
g12
ssV2565350770
p1528
(dp1529
g3
g15
sg5
g59
sg7
g12
ssV2640694584
p1530
(dp1531
g3
g15
sg5
g11
sg7
g12
ssV2432989725
p1532
(dp1533
g3
g15
sg5
g16
sg7
g8
ssV2403392314
p1534
(dp1535
g3
g15
sg5
g16
sg7
g12
ssV1849260573
p1536
(dp1537
g3
g15
sg5
g11
sg7
g12
ssV2207701842
p1538
(dp1539
g3
g15
sg5
g11
sg7
g8
ssV1686377400
p1540
(dp1541
g3
g15
sg5
g21
sg7
g8
ssV2830769462
p1542
(dp1543
g3
g4
sg5
g11
sg7
g12
ssV1579045253
p1544
(dp1545
g3
g15
sg5
g11
sg7
g8
ssV2871952890
p1546
(dp1547
g3
g4
sg5
g11
sg7
g32
ssV1888723111
p1548
(dp1549
g3
g4
sg5
g11
sg7
g12
ssV2772641082
p1550
(dp1551
g3
g15
sg5
g16
sg7
g8
ssV2806781512
p1552
(dp1553
g3
g4
sg5
g11
sg7
g8
ssV2810748791
p1554
(dp1555
g3
g15
sg5
g6
sg7
g8
ssV1816298595
p1556
(dp1557
g3
g15
sg5
g11
sg7
g8
ssV1837464592
p1558
(dp1559
g3
g15
sg5
g16
sg7
g8
ssV1989653225
p1560
(dp1561
g3
g4
sg5
g16
sg7
g12
ssV2852809432
p1562
(dp1563
g3
g15
sg5
g16
sg7
g12
ssV1875218733
p1564
(dp1565
g3
g15
sg5
g21
sg7
g8
ssV1202178165
p1566
(dp1567
g3
g15
sg5
g11
sg7
g12
ssV3154972237
p1568
(dp1569
g3
g15
sg5
g6
sg7
g8
ssV1351012322
p1570
(dp1571
g3
g4
sg5
g21
sg7
g12
ssV1868708977
p1572
(dp1573
g3
g4
sg5
g21
sg7
g12
ssV2706812181
p1574
(dp1575
g3
g15
sg5
g11
sg7
g12
ssV2817880744
p1576
(dp1577
g3
g15
sg5
g6
sg7
g8
ssV2643917822
p1578
(dp1579
g3
g15
sg5
g21
sg7
g12
ssV1680592964
p1580
(dp1581
g3
g15
sg5
g6
sg7
g12
ssV1359530197
p1582
(dp1583
g3
g15
sg5
g16
sg7
g12
ssV1577671492
p1584
(dp1585
g3
g15
sg5
g59
sg7
g8
ssV1821796503
p1586
(dp1587
g3
g15
sg5
g11
sg7
g12
ssV1130358012
p1588
(dp1589
g3
g15
sg5
g11
sg7
g12
ssV2113154687
p1590
(dp1591
g3
g15
sg5
g59
sg7
g12
ssV2103990263
p1592
(dp1593
g3
g15
sg5
g21
sg7
g12
ssV1974837285
p1594
(dp1595
g3
g15
sg5
g24
sg7
g8
ssV2724817811
p1596
(dp1597
g3
g15
sg5
g21
sg7
g8
ssV2117364942
p1598
(dp1599
g3
g15
sg5
g16
sg7
g12
ssV1628442321
p1600
(dp1601
g3
g15
sg5
g21
sg7
g12
ssV2369844762
p1602
(dp1603
g3
g4
sg5
g16
sg7
g12
ssV1847867845
p1604
(dp1605
g3
g15
sg5
g24
sg7
g12
ssV1847422905
p1606
(dp1607
g3
g15
sg5
g24
sg7
g12
ssV2614249263
p1608
(dp1609
g3
g4
sg5
g24
sg7
g8
ssV2521942483
p1610
(dp1611
g3
g15
sg5
g21
sg7
g12
ssV1713394543
p1612
(dp1613
g3
g4
sg5
g21
sg7
g12
ssV1401422865
p1614
(dp1615
g3
g15
sg5
g21
sg7
g32
ssV3152717312
p1616
(dp1617
g3
g15
sg5
g24
sg7
g12
ssV1361329393
p1618
(dp1619
g3
g15
sg5
g24
sg7
g32
ssV1371884474
p1620
(dp1621
g3
g4
sg5
g11
sg7
g32
ssV1652049090
p1622
(dp1623
g3
g15
sg5
g24
sg7
g12
ssV1998447080
p1624
(dp1625
g3
g15
sg5
g6
sg7
g12
ssV2208003731
p1626
(dp1627
g3
g15
sg5
g11
sg7
g8
ssV2354397934
p1628
(dp1629
g3
g4
sg5
g21
sg7
g8
ssV2336791927
p1630
(dp1631
g3
g15
sg5
g16
sg7
g12
ssV1947767835
p1632
(dp1633
g3
g15
sg5
g21
sg7
g12
ssV1941342295
p1634
(dp1635
g3
g15
sg5
g59
sg7
g12
ssV1889150792
p1636
(dp1637
g3
g15
sg5
g11
sg7
g12
ssV1906817425
p1638
(dp1639
g3
g15
sg5
g16
sg7
g32
ssV1143190977
p1640
(dp1641
g3
g15
sg5
g11
sg7
g12
ssV2683635891
p1642
(dp1643
g3
g15
sg5
g16
sg7
g12
ssV1613017723
p1644
(dp1645
g3
g4
sg5
g21
sg7
g12
ssV1664408277
p1646
(dp1647
g3
g4
sg5
g21
sg7
g12
ssV1862622922
p1648
(dp1649
g3
g15
sg5
g59
sg7
g8
ssV2502529240
p1650
(dp1651
g3
g15
sg5
g16
sg7
g12
ssV2524010904
p1652
(dp1653
g3
g15
sg5
g11
sg7
g12
ssV2636791800
p1654
(dp1655
g3
g15
sg5
g11
sg7
g8
ssV1747643243
p1656
(dp1657
g3
g4
sg5
g11
sg7
g12
ssV3182814772
p1658
(dp1659
g3
g15
sg5
g21
sg7
g27
ssV1992928272
p1660
(dp1661
g3
g15
sg5
g11
sg7
g12
ssV2707920864
p1662
(dp1663
g3
g4
sg5
g11
sg7
g8
ssV2264428271
p1664
(dp1665
g3
g15
sg5
g21
sg7
g12
ssV2273421952
p1666
(dp1667
g3
g15
sg5
g59
sg7
g8
ssV2567323907
p1668
(dp1669
g3
g15
sg5
g21
sg7
g12
ssV2096395595
p1670
(dp1671
g3
g4
sg5
g16
sg7
g8
ssV2952006923
p1672
(dp1673
g3
g15
sg5
g6
sg7
g8
ssV1827764573
p1674
(dp1675
g3
g15
sg5
g21
sg7
g12
ssV1791371703
p1676
(dp1677
g3
g4
sg5
g11
sg7
g12
ssV1069505673
p1678
(dp1679
g3
g15
sg5
g11
sg7
g12
ssV2638269701
p1680
(dp1681
g3
g15
sg5
g16
sg7
g8
ssV2896416914
p1682
(dp1683
g3
g4
sg5
g24
sg7
g12
ssV2501855701
p1684
(dp1685
g3
g15
sg5
g11
sg7
g12
ssV3164023035
p1686
(dp1687
g3
g15
sg5
g21
sg7
g12
ssV1337381531
p1688
(dp1689
g3
g15
sg5
g21
sg7
g32
ssV2913981407
p1690
(dp1691
g3
g15
sg5
g21
sg7
g8
ssV2322899875
p1692
(dp1693
g3
g15
sg5
g24
sg7
g32
ssV1827511317
p1694
(dp1695
g3
g15
sg5
g11
sg7
g12
ssV2714678121
p1696
(dp1697
g3
g15
sg5
g16
sg7
g12
ssV2160812927
p1698
(dp1699
g3
g15
sg5
g24
sg7
g32
ssV2742261533
p1700
(dp1701
g3
g15
sg5
g11
sg7
g12
ssV2973026154
p1702
(dp1703
g3
g15
sg5
g6
sg7
g8
ssV1676417930
p1704
(dp1705
g3
g15
sg5
g11
sg7
g12
ssV1444566615
p1706
(dp1707
g3
g15
sg5
g11
sg7
g12
ssV1262724831
p1708
(dp1709
g3
g15
sg5
g16
sg7
g12
ssV2427920275
p1710
(dp1711
g3
g15
sg5
g24
sg7
g8
ssV1228476524
p1712
(dp1713
g3
g4
sg5
g21
sg7
g27
ssV1874412275
p1714
(dp1715
g3
g15
sg5
g24
sg7
g12
ssV3091740701
p1716
(dp1717
g3
g15
sg5
g6
sg7
g8
ssV1881395903
p1718
(dp1719
g3
g4
sg5
g24
sg7
g12
ssV1728987674
p1720
(dp1721
g3
g15
sg5
g16
sg7
g12
ssV2695911600
p1722
(dp1723
g3
g15
sg5
g11
sg7
g8
ssV3165880660
p1724
(dp1725
g3
g4
sg5
g16
sg7
g12
ssV1081772631
p1726
(dp1727
g3
g15
sg5
g11
sg7
g12
ssV3098514301
p1728
(dp1729
g3
g15
sg5
g11
sg7
g8
ssV3341215330
p1730
(dp1731
g3
g15
sg5
g59
sg7
g12
ssV2338924007
p1732
(dp1733
g3
g15
sg5
g21
sg7
g32
ssV2630267160
p1734
(dp1735
g3
g15
sg5
g11
sg7
g12
ssV2336200461
p1736
(dp1737
g3
g15
sg5
g11
sg7
g8
ssV1805130100
p1738
(dp1739
g3
g15
sg5
g16
sg7
g12
ssV1714337942
p1740
(dp1741
g3
g15
sg5
g16
sg7
g12
ssV1652187672
p1742
(dp1743
g3
g4
sg5
g16
sg7
g32
ssV1631057950
p1744
(dp1745
g3
g15
sg5
g21
sg7
g27
ssV1817067173
p1746
(dp1747
g3
g15
sg5
g21
sg7
g8
ssV2013966904
p1748
(dp1749
g3
g15
sg5
g16
sg7
g12
ssV3202558514
p1750
(dp1751
g3
g15
sg5
g21
sg7
g8
ssV2411295121
p1752
(dp1753
g3
g15
sg5
g6
sg7
g8
ssV2790414212
p1754
(dp1755
g3
g15
sg5
g21
sg7
g12
ssV1878851452
p1756
(dp1757
g3
g15
sg5
g11
sg7
g27
ssV2339192905
p1758
(dp1759
g3
g15
sg5
g11
sg7
g12
ssV2716925725
p1760
(dp1761
g3
g15
sg5
g21
sg7
g8
ssV3192180342
p1762
(dp1763
g3
g15
sg5
g59
sg7
g8
ssV2680044593
p1764
(dp1765
g3
g15
sg5
g16
sg7
g12
ssV1783119060
p1766
(dp1767
g3
g4
sg5
g16
sg7
g8
ssV1439276102
p1768
(dp1769
g3
g15
sg5
g24
sg7
g12
ssV1906733225
p1770
(dp1771
g3
g15
sg5
g6
sg7
g32
ssV1763552992
p1772
(dp1773
g3
g4
sg5
g16
sg7
g12
ssV2731951453
p1774
(dp1775
g3
g4
sg5
g6
sg7
g8
ssV2718526513
p1776
(dp1777
g3
g15
sg5
g11
sg7
g12
ssV1707881443
p1778
(dp1779
g3
g4
sg5
g59
sg7
g8
ssV1655219125
p1780
(dp1781
g3
g15
sg5
g11
sg7
g32
ssV2903477913
p1782
(dp1783
g3
g15
sg5
g6
sg7
g12
ssV2140399895
p1784
(dp1785
g3
g15
sg5
g11
sg7
g12
ssV2644828083
p1786
(dp1787
g3
g4
sg5
g24
sg7
g8
ssV2832828650
p1788
(dp1789
g3
g4
sg5
g11
sg7
g12
ssV2814752397
p1790
(dp1791
g3
g4
sg5
g21
sg7
g12
ssV2448082602
p1792
(dp1793
g3
g4
sg5
g24
sg7
g12
ssV1741487741
p1794
(dp1795
g3
g15
sg5
g59
sg7
g12
ssV1757386721
p1796
(dp1797
g3
g15
sg5
g11
sg7
g8
ssV2675833701
p1798
(dp1799
g3
g15
sg5
g59
sg7
g8
ssV1912602662
p1800
(dp1801
g3
g15
sg5
g59
sg7
g32
ssV1372510681
p1802
(dp1803
g3
g15
sg5
g11
sg7
g8
ssV3124455753
p1804
(dp1805
g3
g15
sg5
g11
sg7
g8
ssV2309449173
p1806
(dp1807
g3
g15
sg5
g21
sg7
g32
ssV1745180290
p1808
(dp1809
g3
g15
sg5
g11
sg7
g12
ssV2561341187
p1810
(dp1811
g3
g15
sg5
g21
sg7
g12
ssV2484939862
p1812
(dp1813
g3
g15
sg5
g6
sg7
g8
ssV2289709777
p1814
(dp1815
g3
g15
sg5
g21
sg7
g12
ssV1771315090
p1816
(dp1817
g3
g15
sg5
g11
sg7
g12
ssV1009405710
p1818
(dp1819
g3
g4
sg5
g24
sg7
g12
ssV1630452315
p1820
(dp1821
g3
g4
sg5
g59
sg7
g8
ssV2055509375
p1822
(dp1823
g3
g4
sg5
g21
sg7
g8
ssV2347137397
p1824
(dp1825
g3
g15
sg5
g59
sg7
g8
ssV2150839112
p1826
(dp1827
g3
g15
sg5
g11
sg7
g12
ssV2522108025
p1828
(dp1829
g3
g15
sg5
g11
sg7
g8
ssV1747876700
p1830
(dp1831
g3
g15
sg5
g16
sg7
g27
ssV2528459362
p1832
(dp1833
g3
g4
sg5
g21
sg7
g12
ssV1822102310
p1834
(dp1835
g3
g15
sg5
g16
sg7
g12
ssV1875969654
p1836
(dp1837
g3
g4
sg5
g16
sg7
g12
ssV1917528345
p1838
(dp1839
g3
g15
sg5
g24
sg7
g12
ssV2044221315
p1840
(dp1841
g3
g15
sg5
g16
sg7
g12
ssV2427135073
p1842
(dp1843
g3
g15
sg5
g6
sg7
g12
ssV1093552572
p1844
(dp1845
g3
g15
sg5
g6
sg7
g12
ssV2230910281
p1846
(dp1847
g3
g15
sg5
g16
sg7
g8
ssV2623440157
p1848
(dp1849
g3
g4
sg5
g21
sg7
g12
ssV1450992545
p1850
(dp1851
g3
g15
sg5
g21
sg7
g12
ssV2130800155
p1852
(dp1853
g3
g15
sg5
g24
sg7
g12
ssV3054725901
p1854
(dp1855
g3
g15
sg5
g16
sg7
g12
ssV2709447741
p1856
(dp1857
g3
g15
sg5
g11
sg7
g12
ssV1631786285
p1858
(dp1859
g3
g15
sg5
g21
sg7
g27
ssV1544483892
p1860
(dp1861
g3
g4
sg5
g21
sg7
g12
ssV2199716397
p1862
(dp1863
g3
g4
sg5
g11
sg7
g8
ssV1717178103
p1864
(dp1865
g3
g15
sg5
g11
sg7
g12
ssV2821834280
p1866
(dp1867
g3
g15
sg5
g16
sg7
g12
ssV1279023363
p1868
(dp1869
g3
g15
sg5
g11
sg7
g12
ssV1655136275
p1870
(dp1871
g3
g15
sg5
g21
sg7
g8
ssV1845354127
p1872
(dp1873
g3
g4
sg5
g24
sg7
g8
ssV2106597335
p1874
(dp1875
g3
g15
sg5
g24
sg7
g12
ssV3178838240
p1876
(dp1877
g3
g15
sg5
g21
sg7
g27
ssV1853750521
p1878
(dp1879
g3
g15
sg5
g21
sg7
g8
ssV1586432443
p1880
(dp1881
g3
g4
sg5
g16
sg7
g12
ssV2022772663
p1882
(dp1883
g3
g4
sg5
g21
sg7
g8
ssV1353942620
p1884
(dp1885
g3
g15
sg5
g11
sg7
g27
ssV1696372317
p1886
(dp1887
g3
g15
sg5
g21
sg7
g12
ssV1198649070
p1888
(dp1889
g3
g4
sg5
g21
sg7
g12
ssV1144525902
p1890
(dp1891
g3
g4
sg5
g21
sg7
g8
ssV2213080505
p1892
(dp1893
g3
g15
sg5
g21
sg7
g12
ssV3204167305
p1894
(dp1895
g3
g15
sg5
g24
sg7
g27
ssV1869088172
p1896
(dp1897
g3
g15
sg5
g16
sg7
g12
ssV1689211352
p1898
(dp1899
g3
g15
sg5
g59
sg7
g8
ssV1067564245
p1900
(dp1901
g3
g15
sg5
g21
sg7
g8
ssV2303187535
p1902
(dp1903
g3
g15
sg5
g6
sg7
g32
ssV1149035224
p1904
(dp1905
g3
g15
sg5
g21
sg7
g12
ssV1823586962
p1906
(dp1907
g3
g4
sg5
g24
sg7
g8
ssV1746171492
p1908
(dp1909
g3
g15
sg5
g21
sg7
g12
ssV2611909783
p1910
(dp1911
g3
g15
sg5
g21
sg7
g12
ssV2770605382
p1912
(dp1913
g3
g15
sg5
g11
sg7
g8
ssV1951083117
p1914
(dp1915
g3
g15
sg5
g11
sg7
g12
ssV2377078151
p1916
(dp1917
g3
g15
sg5
g21
sg7
g12
ssV1951264841
p1918
(dp1919
g3
g15
sg5
g21
sg7
g8
ssV2416628144
p1920
(dp1921
g3
g15
sg5
g11
sg7
g8
ssV1684593533
p1922
(dp1923
g3
g15
sg5
g11
sg7
g32
ssV3127686344
p1924
(dp1925
g3
g4
sg5
g11
sg7
g12
ssV2249496385
p1926
(dp1927
g3
g15
sg5
g59
sg7
g8
ssV2904949690
p1928
(dp1929
g3
g4
sg5
g21
sg7
g32
ssV3153982355
p1930
(dp1931
g3
g15
sg5
g16
sg7
g12
ssV1489958432
p1932
(dp1933
g3
g15
sg5
g21
sg7
g12
ssV1843975422
p1934
(dp1935
g3
g15
sg5
g11
sg7
g8
ssV2564189881
p1936
(dp1937
g3
g15
sg5
g21
sg7
g12
ssV1768312481
p1938
(dp1939
g3
g15
sg5
g59
sg7
g12
ssV2405278354
p1940
(dp1941
g3
g4
sg5
g24
sg7
g8
ssV2145433191
p1942
(dp1943
g3
g15
sg5
g16
sg7
g32
ssV1566232913
p1944
(dp1945
g3
g15
sg5
g24
sg7
g12
ssV2132742033
p1946
(dp1947
g3
g15
sg5
g11
sg7
g12
ssV2553102145
p1948
(dp1949
g3
g15
sg5
g21
sg7
g8
ssV3187396657
p1950
(dp1951
g3
g15
sg5
g11
sg7
g8
ssV1701848840
p1952
(dp1953
g3
g15
sg5
g21
sg7
g27
ssV2105354510
p1954
(dp1955
g3
g4
sg5
g6
sg7
g12
ssV3056988735
p1956
(dp1957
g3
g15
sg5
g11
sg7
g27
ssV3018142421
p1958
(dp1959
g3
g4
sg5
g16
sg7
g12
ssV1868961154
p1960
(dp1961
g3
g4
sg5
g16
sg7
g12
ssV1095348972
p1962
(dp1963
g3
g4
sg5
g21
sg7
g12
ssV1655718884
p1964
(dp1965
g3
g15
sg5
g11
sg7
g27
ssV1653272323
p1966
(dp1967
g3
g15
sg5
g11
sg7
g12
ssV1977642431
p1968
(dp1969
g3
g15
sg5
g21
sg7
g8
ssV1217989875
p1970
(dp1971
g3
g15
sg5
g24
sg7
g27
ssV2354851307
p1972
(dp1973
g3
g15
sg5
g16
sg7
g12
ssV2537754962
p1974
(dp1975
g3
g15
sg5
g6
sg7
g32
ss.